ARM GAS  C:\Users\evang\AppData\Local\Temp\ccUReI4Z.s 			page 1


   1              		.cpu cortex-m7
   2              		.eabi_attribute 28, 1
   3              		.eabi_attribute 20, 1
   4              		.eabi_attribute 21, 1
   5              		.eabi_attribute 23, 3
   6              		.eabi_attribute 24, 1
   7              		.eabi_attribute 25, 1
   8              		.eabi_attribute 26, 1
   9              		.eabi_attribute 30, 2
  10              		.eabi_attribute 34, 1
  11              		.eabi_attribute 18, 4
  12              		.file	"MiniSynth.cpp"
  13              		.text
  14              	.Ltext0:
  15              		.cfi_sections	.debug_frame
  16              		.section	.text._ZN5daisy9DaisySeedD2Ev,"axG",%progbits,_ZN5daisy9DaisySeedD5Ev,comdat
  17              		.align	1
  18              		.p2align 2,,3
  19              		.weak	_ZN5daisy9DaisySeedD2Ev
  20              		.arch armv7e-m
  21              		.syntax unified
  22              		.thumb
  23              		.thumb_func
  24              		.fpu fpv5-d16
  26              	_ZN5daisy9DaisySeedD2Ev:
  27              	.LVL0:
  28              	.LFB2555:
  29              		.file 1 "../../libDaisy//src/daisy_seed.h"
   1:../../libDaisy//src/daisy_seed.h **** #pragma once
   2:../../libDaisy//src/daisy_seed.h **** #ifndef DSY_SEED_H
   3:../../libDaisy//src/daisy_seed.h **** #define DSY_SEED_H
   4:../../libDaisy//src/daisy_seed.h **** 
   5:../../libDaisy//src/daisy_seed.h **** #include "daisy.h"
   6:../../libDaisy//src/daisy_seed.h **** 
   7:../../libDaisy//src/daisy_seed.h **** //Uncomment this out if you're still using the rev2 hardware
   8:../../libDaisy//src/daisy_seed.h **** //#define SEED_REV2
   9:../../libDaisy//src/daisy_seed.h **** 
  10:../../libDaisy//src/daisy_seed.h **** namespace daisy
  11:../../libDaisy//src/daisy_seed.h **** {
  12:../../libDaisy//src/daisy_seed.h **** /**
  13:../../libDaisy//src/daisy_seed.h ****    @brief This is the higher-level interface for the Daisy board. \n 
  14:../../libDaisy//src/daisy_seed.h ****     All basic peripheral configuration/initialization is setup here. \n
  15:../../libDaisy//src/daisy_seed.h **** 
  16:../../libDaisy//src/daisy_seed.h ****    @ingroup boards
  17:../../libDaisy//src/daisy_seed.h **** */
  18:../../libDaisy//src/daisy_seed.h **** class DaisySeed
  19:../../libDaisy//src/daisy_seed.h **** {
  20:../../libDaisy//src/daisy_seed.h ****   public:
  21:../../libDaisy//src/daisy_seed.h ****     DaisySeed() {}
  22:../../libDaisy//src/daisy_seed.h ****     ~DaisySeed() {}
  30              		.loc 1 22 5 view -0
  31              		.cfi_startproc
  32              		@ args = 0, pretend = 0, frame = 0
  33              		@ frame_needed = 0, uses_anonymous_args = 0
  34              		@ link register save eliminated.
  35              	.LBB610:
  36              	.LBI610:
ARM GAS  C:\Users\evang\AppData\Local\Temp\ccUReI4Z.s 			page 2


  37              		.file 2 "../../libDaisy//src/sys/system.h"
   1:../../libDaisy//src/sys/system.h **** #ifndef DSY_SYSTEM_H
   2:../../libDaisy//src/sys/system.h **** #define DSY_SYSTEM_H
   3:../../libDaisy//src/sys/system.h **** 
   4:../../libDaisy//src/sys/system.h **** #ifndef UNIT_TEST // for unit tests, a dummy implementation is provided below
   5:../../libDaisy//src/sys/system.h **** 
   6:../../libDaisy//src/sys/system.h **** #include <cstdint>
   7:../../libDaisy//src/sys/system.h **** #include "per/tim.h"
   8:../../libDaisy//src/sys/system.h **** 
   9:../../libDaisy//src/sys/system.h **** namespace daisy
  10:../../libDaisy//src/sys/system.h **** {
  11:../../libDaisy//src/sys/system.h **** /** A handle for interacting with the Core System.
  12:../../libDaisy//src/sys/system.h ****  ** This includes the Clock tree, MPU, global DMA initialization,
  13:../../libDaisy//src/sys/system.h ****  ** cache handling, and any other necessary global initiailzation
  14:../../libDaisy//src/sys/system.h ****  **
  15:../../libDaisy//src/sys/system.h ****  ** @author shensley
  16:../../libDaisy//src/sys/system.h ****  ** @ingroup system
  17:../../libDaisy//src/sys/system.h ****  */
  18:../../libDaisy//src/sys/system.h **** class System
  19:../../libDaisy//src/sys/system.h **** {
  20:../../libDaisy//src/sys/system.h ****   public:
  21:../../libDaisy//src/sys/system.h ****     /** Contains settings for initializing the System */
  22:../../libDaisy//src/sys/system.h ****     struct Config
  23:../../libDaisy//src/sys/system.h ****     {
  24:../../libDaisy//src/sys/system.h ****         /** Specifies the system clock frequency that feeds APB/AHB clocks, etc. */
  25:../../libDaisy//src/sys/system.h ****         enum class SysClkFreq
  26:../../libDaisy//src/sys/system.h ****         {
  27:../../libDaisy//src/sys/system.h ****             FREQ_400MHZ,
  28:../../libDaisy//src/sys/system.h ****             FREQ_480MHZ,
  29:../../libDaisy//src/sys/system.h ****         };
  30:../../libDaisy//src/sys/system.h **** 
  31:../../libDaisy//src/sys/system.h ****         /** Method to call on the struct to set to defaults
  32:../../libDaisy//src/sys/system.h ****          ** CPU Freq set to 400MHz
  33:../../libDaisy//src/sys/system.h ****          ** Cache Enabled
  34:../../libDaisy//src/sys/system.h ****          ** */
  35:../../libDaisy//src/sys/system.h ****         void Defaults()
  36:../../libDaisy//src/sys/system.h ****         {
  37:../../libDaisy//src/sys/system.h ****             cpu_freq    = SysClkFreq::FREQ_400MHZ;
  38:../../libDaisy//src/sys/system.h ****             use_dcache  = true;
  39:../../libDaisy//src/sys/system.h ****             use_icache  = true;
  40:../../libDaisy//src/sys/system.h ****             skip_clocks = false;
  41:../../libDaisy//src/sys/system.h ****         }
  42:../../libDaisy//src/sys/system.h **** 
  43:../../libDaisy//src/sys/system.h ****         /** Method to call on the struct to set to boost mode:
  44:../../libDaisy//src/sys/system.h ****          ** CPU Freq set to 480MHz
  45:../../libDaisy//src/sys/system.h ****          ** Cache Enabled
  46:../../libDaisy//src/sys/system.h ****          ** */
  47:../../libDaisy//src/sys/system.h ****         void Boost()
  48:../../libDaisy//src/sys/system.h ****         {
  49:../../libDaisy//src/sys/system.h ****             cpu_freq    = SysClkFreq::FREQ_480MHZ;
  50:../../libDaisy//src/sys/system.h ****             use_dcache  = true;
  51:../../libDaisy//src/sys/system.h ****             use_icache  = true;
  52:../../libDaisy//src/sys/system.h ****             skip_clocks = false;
  53:../../libDaisy//src/sys/system.h ****         }
  54:../../libDaisy//src/sys/system.h **** 
  55:../../libDaisy//src/sys/system.h ****         SysClkFreq cpu_freq;
  56:../../libDaisy//src/sys/system.h ****         bool       use_dcache;
ARM GAS  C:\Users\evang\AppData\Local\Temp\ccUReI4Z.s 			page 3


  57:../../libDaisy//src/sys/system.h ****         bool       use_icache;
  58:../../libDaisy//src/sys/system.h ****         bool       skip_clocks;
  59:../../libDaisy//src/sys/system.h ****     };
  60:../../libDaisy//src/sys/system.h **** 
  61:../../libDaisy//src/sys/system.h ****     /** Describes the different regions of memory available to the Daisy */
  62:../../libDaisy//src/sys/system.h ****     enum MemoryRegion
  63:../../libDaisy//src/sys/system.h ****     {
  64:../../libDaisy//src/sys/system.h ****         INTERNAL_FLASH = 0,
  65:../../libDaisy//src/sys/system.h ****         ITCMRAM,
  66:../../libDaisy//src/sys/system.h ****         DTCMRAM,
  67:../../libDaisy//src/sys/system.h ****         SRAM_D1,
  68:../../libDaisy//src/sys/system.h ****         SRAM_D2,
  69:../../libDaisy//src/sys/system.h ****         SRAM_D3,
  70:../../libDaisy//src/sys/system.h ****         SDRAM,
  71:../../libDaisy//src/sys/system.h ****         QSPI,
  72:../../libDaisy//src/sys/system.h ****         INVALID_ADDRESS,
  73:../../libDaisy//src/sys/system.h ****     };
  74:../../libDaisy//src/sys/system.h **** 
  75:../../libDaisy//src/sys/system.h ****     /** Bootloader struct for controlling bootloading parameters */
  76:../../libDaisy//src/sys/system.h ****     struct BootInfo
  77:../../libDaisy//src/sys/system.h ****     {
  78:../../libDaisy//src/sys/system.h ****         enum class Type : uint32_t
  79:../../libDaisy//src/sys/system.h ****         {
  80:../../libDaisy//src/sys/system.h ****             INVALID      = 0x00000000,
  81:../../libDaisy//src/sys/system.h ****             JUMP         = 0xDEADBEEF,
  82:../../libDaisy//src/sys/system.h ****             SKIP_TIMEOUT = 0x5AFEB007,
  83:../../libDaisy//src/sys/system.h ****             INF_TIMEOUT  = 0xB0074EFA,
  84:../../libDaisy//src/sys/system.h ****         } status;
  85:../../libDaisy//src/sys/system.h ****         uint32_t data;
  86:../../libDaisy//src/sys/system.h ****         enum class Version : uint32_t
  87:../../libDaisy//src/sys/system.h ****         {
  88:../../libDaisy//src/sys/system.h ****             LT_v6_0 = 0, // Less than v6.0
  89:../../libDaisy//src/sys/system.h ****             NONE,        // No bootloader present
  90:../../libDaisy//src/sys/system.h ****             v6_0,        // v6.0
  91:../../libDaisy//src/sys/system.h ****             v6_1,        // v6.1 or greater
  92:../../libDaisy//src/sys/system.h ****             LAST
  93:../../libDaisy//src/sys/system.h ****         } version;
  94:../../libDaisy//src/sys/system.h ****     };
  95:../../libDaisy//src/sys/system.h **** 
  96:../../libDaisy//src/sys/system.h ****     System() {}
  97:../../libDaisy//src/sys/system.h ****     ~System() {}
  38              		.loc 2 97 5 view .LVU1
  39              		.loc 2 97 5 is_stmt 0 view .LVU2
  40              	.LBE610:
  41              	.LBB611:
  42              	.LBI611:
  43              		.file 3 "../../libDaisy//src/hid/usb.h"
   1:../../libDaisy//src/hid/usb.h **** #pragma once
   2:../../libDaisy//src/hid/usb.h **** #ifndef DSY_HID_USB_H
   3:../../libDaisy//src/hid/usb.h **** #define DSY_HID_USB_H
   4:../../libDaisy//src/hid/usb.h **** #include <stdint.h>
   5:../../libDaisy//src/hid/usb.h **** #include <stdlib.h>
   6:../../libDaisy//src/hid/usb.h **** 
   7:../../libDaisy//src/hid/usb.h **** namespace daisy
   8:../../libDaisy//src/hid/usb.h **** /** @addtogroup human_interface
   9:../../libDaisy//src/hid/usb.h ****     @{
  10:../../libDaisy//src/hid/usb.h **** */
ARM GAS  C:\Users\evang\AppData\Local\Temp\ccUReI4Z.s 			page 4


  11:../../libDaisy//src/hid/usb.h **** 
  12:../../libDaisy//src/hid/usb.h **** {
  13:../../libDaisy//src/hid/usb.h **** /** 
  14:../../libDaisy//src/hid/usb.h ****     @brief Interface for initializing and using the USB Peripherals on the daisy
  15:../../libDaisy//src/hid/usb.h ****     @author Stephen Hensley
  16:../../libDaisy//src/hid/usb.h ****     @date December 2019
  17:../../libDaisy//src/hid/usb.h **** */
  18:../../libDaisy//src/hid/usb.h **** class UsbHandle
  19:../../libDaisy//src/hid/usb.h **** {
  20:../../libDaisy//src/hid/usb.h ****   public:
  21:../../libDaisy//src/hid/usb.h ****     /** Return values for USBHandle Functions */
  22:../../libDaisy//src/hid/usb.h ****     enum class Result
  23:../../libDaisy//src/hid/usb.h ****     {
  24:../../libDaisy//src/hid/usb.h ****         OK,
  25:../../libDaisy//src/hid/usb.h ****         ERR,
  26:../../libDaisy//src/hid/usb.h ****     };
  27:../../libDaisy//src/hid/usb.h **** 
  28:../../libDaisy//src/hid/usb.h ****     /** Specified which of the two USB Peripherals to initialize. */
  29:../../libDaisy//src/hid/usb.h ****     enum UsbPeriph
  30:../../libDaisy//src/hid/usb.h ****     {
  31:../../libDaisy//src/hid/usb.h ****         FS_INTERNAL, /**< Internal pin */
  32:../../libDaisy//src/hid/usb.h ****         FS_EXTERNAL, /**< FS External D+ pin is Pin 38 (GPIO32). FS External D- pin is Pin 37 (GPIO
  33:../../libDaisy//src/hid/usb.h ****         FS_BOTH,     /**< Both */
  34:../../libDaisy//src/hid/usb.h ****     };
  35:../../libDaisy//src/hid/usb.h **** 
  36:../../libDaisy//src/hid/usb.h **** 
  37:../../libDaisy//src/hid/usb.h ****     /** Function called upon reception of a buffer */
  38:../../libDaisy//src/hid/usb.h ****     typedef void (*ReceiveCallback)(uint8_t* buff, uint32_t* len);
  39:../../libDaisy//src/hid/usb.h **** 
  40:../../libDaisy//src/hid/usb.h ****     UsbHandle() {}
  41:../../libDaisy//src/hid/usb.h **** 
  42:../../libDaisy//src/hid/usb.h ****     ~UsbHandle() {}
  44              		.loc 3 42 5 is_stmt 1 view .LVU3
  45              		.loc 3 42 5 is_stmt 0 view .LVU4
  46              	.LBE611:
  47              	.LBB612:
  48              	.LBI612:
  49              		.file 4 "../../libDaisy//src/per/adc.h"
   1:../../libDaisy//src/per/adc.h **** #pragma once
   2:../../libDaisy//src/per/adc.h **** #ifndef DSY_ADC_H
   3:../../libDaisy//src/per/adc.h **** #define DSY_ADC_H /**< Macro */
   4:../../libDaisy//src/per/adc.h **** #include <stdint.h>
   5:../../libDaisy//src/per/adc.h **** #include <stdlib.h>
   6:../../libDaisy//src/per/adc.h **** #include "daisy_core.h"
   7:../../libDaisy//src/per/adc.h **** #include "per/gpio.h"
   8:../../libDaisy//src/per/adc.h **** 
   9:../../libDaisy//src/per/adc.h **** #define DSY_ADC_MAX_CHANNELS 16 /**< Maximum number of ADC channels */
  10:../../libDaisy//src/per/adc.h **** 
  11:../../libDaisy//src/per/adc.h **** namespace daisy
  12:../../libDaisy//src/per/adc.h **** {
  13:../../libDaisy//src/per/adc.h **** /** @addtogroup per_analog
  14:../../libDaisy//src/per/adc.h ****     @{
  15:../../libDaisy//src/per/adc.h **** */
  16:../../libDaisy//src/per/adc.h **** 
  17:../../libDaisy//src/per/adc.h **** /* While there may not be many configuration options here,
  18:../../libDaisy//src/per/adc.h **** using a struct like this allows us to add more configuration
  19:../../libDaisy//src/per/adc.h **** later without breaking existing functionality.
ARM GAS  C:\Users\evang\AppData\Local\Temp\ccUReI4Z.s 			page 5


  20:../../libDaisy//src/per/adc.h **** */
  21:../../libDaisy//src/per/adc.h **** 
  22:../../libDaisy//src/per/adc.h **** /** @brief   Configuration Structure for an ADC Channel 
  23:../../libDaisy//src/per/adc.h ****  *  @details This can be used to configure a a single input, 
  24:../../libDaisy//src/per/adc.h ****  *           or a multiplexed input, allowing up to 8 inputs on 
  25:../../libDaisy//src/per/adc.h ****  *           one channel.
  26:../../libDaisy//src/per/adc.h ****  *  @note    Sharing data lines to multiple muxes _is_ possible, but
  27:../../libDaisy//src/per/adc.h ****  *           each channel sharing data lines must be set to the maximum
  28:../../libDaisy//src/per/adc.h ****  *           number of channels, even if some multiplexers have fewer
  29:../../libDaisy//src/per/adc.h ****  *           inputs connected.
  30:../../libDaisy//src/per/adc.h **** */
  31:../../libDaisy//src/per/adc.h **** struct AdcChannelConfig
  32:../../libDaisy//src/per/adc.h **** {
  33:../../libDaisy//src/per/adc.h ****     /** Which pin to use for multiplexing */
  34:../../libDaisy//src/per/adc.h ****     enum MuxPin
  35:../../libDaisy//src/per/adc.h ****     {
  36:../../libDaisy//src/per/adc.h ****         MUX_SEL_0,    /**< & */
  37:../../libDaisy//src/per/adc.h ****         MUX_SEL_1,    /**< & */
  38:../../libDaisy//src/per/adc.h ****         MUX_SEL_2,    /**< & */
  39:../../libDaisy//src/per/adc.h ****         MUX_SEL_LAST, /**< & */
  40:../../libDaisy//src/per/adc.h ****     };
  41:../../libDaisy//src/per/adc.h **** 
  42:../../libDaisy//src/per/adc.h ****     /** \brief per channel conversion speed added to fixed time based on bitdepth, etc. */
  43:../../libDaisy//src/per/adc.h ****     enum ConversionSpeed
  44:../../libDaisy//src/per/adc.h ****     {
  45:../../libDaisy//src/per/adc.h ****         SPEED_1CYCLES_5,
  46:../../libDaisy//src/per/adc.h ****         SPEED_2CYCLES_5,
  47:../../libDaisy//src/per/adc.h ****         SPEED_8CYCLES_5,
  48:../../libDaisy//src/per/adc.h ****         SPEED_16CYCLES_5,
  49:../../libDaisy//src/per/adc.h ****         SPEED_32CYCLES_5,
  50:../../libDaisy//src/per/adc.h ****         SPEED_64CYCLES_5,
  51:../../libDaisy//src/per/adc.h ****         SPEED_387CYCLES_5,
  52:../../libDaisy//src/per/adc.h ****         SPEED_810CYCLES_5,
  53:../../libDaisy//src/per/adc.h ****     };
  54:../../libDaisy//src/per/adc.h **** 
  55:../../libDaisy//src/per/adc.h ****     /** Initializes a single ADC pin as an ADC. 
  56:../../libDaisy//src/per/adc.h ****     \param pin Pin to init.
  57:../../libDaisy//src/per/adc.h ****     \param speed conversion speed for this pin defaults to 8.5 cycles
  58:../../libDaisy//src/per/adc.h ****      */
  59:../../libDaisy//src/per/adc.h ****     void InitSingle(dsy_gpio_pin pin, ConversionSpeed speed = SPEED_8CYCLES_5);
  60:../../libDaisy//src/per/adc.h **** 
  61:../../libDaisy//src/per/adc.h ****     /** 
  62:../../libDaisy//src/per/adc.h ****     Initializes a single ADC pin as a Multiplexed ADC.
  63:../../libDaisy//src/per/adc.h ****     Requires a CD405X Multiplexer connected to the pin.
  64:../../libDaisy//src/per/adc.h ****     You only need to supply the mux pins that are required,
  65:../../libDaisy//src/per/adc.h ****     e.g. a 4052 mux would only require mux_0 and mux_1.
  66:../../libDaisy//src/per/adc.h ****     Internal Callbacks handle the pin addressing.
  67:../../libDaisy//src/per/adc.h ****     \param adc_pin &
  68:../../libDaisy//src/per/adc.h ****     \param mux_channels must be 1-8
  69:../../libDaisy//src/per/adc.h ****     \param mux_0 First mux pin
  70:../../libDaisy//src/per/adc.h ****     \param mux_1 Second mux pin
  71:../../libDaisy//src/per/adc.h ****     \param mux_2 Third mux pin
  72:../../libDaisy//src/per/adc.h ****     \param speed conversion speed for this pin defaults to 8.5 cycles
  73:../../libDaisy//src/per/adc.h ****     */
  74:../../libDaisy//src/per/adc.h ****     void InitMux(dsy_gpio_pin    adc_pin,
  75:../../libDaisy//src/per/adc.h ****                  size_t          mux_channels,
  76:../../libDaisy//src/per/adc.h ****                  dsy_gpio_pin    mux_0,
ARM GAS  C:\Users\evang\AppData\Local\Temp\ccUReI4Z.s 			page 6


  77:../../libDaisy//src/per/adc.h ****                  dsy_gpio_pin    mux_1 = {DSY_GPIOX, 0},
  78:../../libDaisy//src/per/adc.h ****                  dsy_gpio_pin    mux_2 = {DSY_GPIOX, 0},
  79:../../libDaisy//src/per/adc.h ****                  ConversionSpeed speed = SPEED_8CYCLES_5);
  80:../../libDaisy//src/per/adc.h **** 
  81:../../libDaisy//src/per/adc.h ****     dsy_gpio        pin_;                   /**< & */
  82:../../libDaisy//src/per/adc.h ****     dsy_gpio        mux_pin_[MUX_SEL_LAST]; /**< & */
  83:../../libDaisy//src/per/adc.h ****     uint8_t         mux_channels_;          /**< & */
  84:../../libDaisy//src/per/adc.h ****     ConversionSpeed speed_;
  85:../../libDaisy//src/per/adc.h **** };
  86:../../libDaisy//src/per/adc.h **** 
  87:../../libDaisy//src/per/adc.h **** /**
  88:../../libDaisy//src/per/adc.h ****    @brief Handler for analog to digital conversion
  89:../../libDaisy//src/per/adc.h **** */
  90:../../libDaisy//src/per/adc.h **** class AdcHandle
  91:../../libDaisy//src/per/adc.h **** {
  92:../../libDaisy//src/per/adc.h ****   public:
  93:../../libDaisy//src/per/adc.h ****     /** Supported oversampling amounts */
  94:../../libDaisy//src/per/adc.h ****     enum OverSampling
  95:../../libDaisy//src/per/adc.h ****     {
  96:../../libDaisy//src/per/adc.h ****         OVS_NONE, /**< & */
  97:../../libDaisy//src/per/adc.h ****         OVS_4,    /**< & */
  98:../../libDaisy//src/per/adc.h ****         OVS_8,    /**< & */
  99:../../libDaisy//src/per/adc.h ****         OVS_16,   /**< & */
 100:../../libDaisy//src/per/adc.h ****         OVS_32,   /**< & */
 101:../../libDaisy//src/per/adc.h ****         OVS_64,   /**< & */
 102:../../libDaisy//src/per/adc.h ****         OVS_128,  /**< & */
 103:../../libDaisy//src/per/adc.h ****         OVS_256,  /**< & */
 104:../../libDaisy//src/per/adc.h ****         OVS_512,  /**< & */
 105:../../libDaisy//src/per/adc.h ****         OVS_1024, /**< & */
 106:../../libDaisy//src/per/adc.h ****         OVS_LAST, /**< & */
 107:../../libDaisy//src/per/adc.h ****     };
 108:../../libDaisy//src/per/adc.h **** 
 109:../../libDaisy//src/per/adc.h ****     AdcHandle() {}
 110:../../libDaisy//src/per/adc.h ****     ~AdcHandle() {}
  50              		.loc 4 110 5 is_stmt 1 view .LVU5
  51              		.loc 4 110 5 is_stmt 0 view .LVU6
  52              	.LBE612:
  53              	.LBB613:
  54              	.LBI613:
  55              		.file 5 "../../libDaisy//src/hid/audio.h"
   1:../../libDaisy//src/hid/audio.h **** #ifndef DSY_AUDIO_H
   2:../../libDaisy//src/hid/audio.h **** #define DSY_AUDIO_H /**< & */
   3:../../libDaisy//src/hid/audio.h **** 
   4:../../libDaisy//src/hid/audio.h **** #include "per/sai.h"
   5:../../libDaisy//src/hid/audio.h **** 
   6:../../libDaisy//src/hid/audio.h **** namespace daisy
   7:../../libDaisy//src/hid/audio.h **** {
   8:../../libDaisy//src/hid/audio.h **** /** @brief Audio Engine Handle
   9:../../libDaisy//src/hid/audio.h ****  *  @ingroup audio 
  10:../../libDaisy//src/hid/audio.h ****  *  @details This class allows for higher level access to an audio engine.
  11:../../libDaisy//src/hid/audio.h ****  *           If you're using a SOM like the DaisySeed or DaisyPatchSM (or any 
  12:../../libDaisy//src/hid/audio.h ****  *            board that includes one of those objects) then the intialization
  13:../../libDaisy//src/hid/audio.h ****  *            is already taken  care of.
  14:../../libDaisy//src/hid/audio.h ****  *           If you're setting up your own custom hardware, or need to make changes
  15:../../libDaisy//src/hid/audio.h ****  *           you will have to take the following steps:
  16:../../libDaisy//src/hid/audio.h ****  *             1. Create and Initialize an SaiHandle or two depending on your requirements
  17:../../libDaisy//src/hid/audio.h ****  *             2. Initialize the Audio Handle with the desired settings and the Initialized SaiHand
ARM GAS  C:\Users\evang\AppData\Local\Temp\ccUReI4Z.s 			page 7


  18:../../libDaisy//src/hid/audio.h ****  *             3. If the connected codec requires special configuration or initialization, do so
  19:../../libDaisy//src/hid/audio.h ****  *             4. Write a callback method using either the AudioCallback or the InterleavingAudioCa
  20:../../libDaisy//src/hid/audio.h ****  *             5. Start the Audio using one of the StartAudio function
  21:../../libDaisy//src/hid/audio.h ****  */
  22:../../libDaisy//src/hid/audio.h **** class AudioHandle
  23:../../libDaisy//src/hid/audio.h **** {
  24:../../libDaisy//src/hid/audio.h ****   public:
  25:../../libDaisy//src/hid/audio.h ****     /** Manually configurable details about the Audio Engine */
  26:../../libDaisy//src/hid/audio.h ****     /** TODO: Figure out how to get samplerate in here. */
  27:../../libDaisy//src/hid/audio.h ****     struct Config
  28:../../libDaisy//src/hid/audio.h ****     {
  29:../../libDaisy//src/hid/audio.h ****         /** number of samples to process per callback */
  30:../../libDaisy//src/hid/audio.h ****         size_t blocksize;
  31:../../libDaisy//src/hid/audio.h **** 
  32:../../libDaisy//src/hid/audio.h ****         /**< Sample rate of audio */
  33:../../libDaisy//src/hid/audio.h ****         SaiHandle::Config::SampleRate samplerate;
  34:../../libDaisy//src/hid/audio.h **** 
  35:../../libDaisy//src/hid/audio.h ****         /** factor for adjustment before and after callback for hardware that may have extra headro
  36:../../libDaisy//src/hid/audio.h ****         float postgain;
  37:../../libDaisy//src/hid/audio.h **** 
  38:../../libDaisy//src/hid/audio.h ****         /** factor for additional one-sided compensation to audio path for hardware that may
  39:../../libDaisy//src/hid/audio.h ****          *  have unequal input/output ranges
  40:../../libDaisy//src/hid/audio.h ****          */
  41:../../libDaisy//src/hid/audio.h ****         float output_compensation;
  42:../../libDaisy//src/hid/audio.h **** 
  43:../../libDaisy//src/hid/audio.h ****         /** Sets default values for config struct */
  44:../../libDaisy//src/hid/audio.h ****         Config()
  45:../../libDaisy//src/hid/audio.h ****         : blocksize(48),
  46:../../libDaisy//src/hid/audio.h ****           samplerate(SaiHandle::Config::SampleRate::SAI_48KHZ),
  47:../../libDaisy//src/hid/audio.h ****           postgain(1.f),
  48:../../libDaisy//src/hid/audio.h ****           output_compensation(1.f)
  49:../../libDaisy//src/hid/audio.h ****         {
  50:../../libDaisy//src/hid/audio.h ****         }
  51:../../libDaisy//src/hid/audio.h ****     };
  52:../../libDaisy//src/hid/audio.h **** 
  53:../../libDaisy//src/hid/audio.h ****     enum class Result
  54:../../libDaisy//src/hid/audio.h ****     {
  55:../../libDaisy//src/hid/audio.h ****         OK,
  56:../../libDaisy//src/hid/audio.h ****         ERR,
  57:../../libDaisy//src/hid/audio.h ****     };
  58:../../libDaisy//src/hid/audio.h **** 
  59:../../libDaisy//src/hid/audio.h ****     /** Non-Interleaving input buffer
  60:../../libDaisy//src/hid/audio.h ****      * Buffer arranged by float[chn][sample] 
  61:../../libDaisy//src/hid/audio.h ****      * const so that the user can't modify the input
  62:../../libDaisy//src/hid/audio.h ****      */
  63:../../libDaisy//src/hid/audio.h ****     typedef const float* const* InputBuffer;
  64:../../libDaisy//src/hid/audio.h **** 
  65:../../libDaisy//src/hid/audio.h ****     /** Non-Interleaving output buffer
  66:../../libDaisy//src/hid/audio.h ****      * Arranged by float[chn][sample] 
  67:../../libDaisy//src/hid/audio.h ****      */
  68:../../libDaisy//src/hid/audio.h ****     typedef float** OutputBuffer;
  69:../../libDaisy//src/hid/audio.h **** 
  70:../../libDaisy//src/hid/audio.h ****     /** Type for a Non-Interleaving audio callback 
  71:../../libDaisy//src/hid/audio.h ****      * Non-Interleaving audio callbacks in daisy will be of this type
  72:../../libDaisy//src/hid/audio.h ****      */
  73:../../libDaisy//src/hid/audio.h ****     typedef void (*AudioCallback)(InputBuffer  in,
  74:../../libDaisy//src/hid/audio.h ****                                   OutputBuffer out,
ARM GAS  C:\Users\evang\AppData\Local\Temp\ccUReI4Z.s 			page 8


  75:../../libDaisy//src/hid/audio.h ****                                   size_t       size);
  76:../../libDaisy//src/hid/audio.h **** 
  77:../../libDaisy//src/hid/audio.h ****     /** Interleaving Input buffer
  78:../../libDaisy//src/hid/audio.h ****      ** audio is prepared as { L0, R0, L1, R1, . . . LN, RN }]
  79:../../libDaisy//src/hid/audio.h ****      ** this is const, as the user shouldn't modify it
  80:../../libDaisy//src/hid/audio.h ****     */
  81:../../libDaisy//src/hid/audio.h ****     typedef const float* InterleavingInputBuffer;
  82:../../libDaisy//src/hid/audio.h **** 
  83:../../libDaisy//src/hid/audio.h ****     /** Interleaving Output buffer 
  84:../../libDaisy//src/hid/audio.h ****      ** audio is prepared as { L0, R0, L1, R1, . . . LN, RN }
  85:../../libDaisy//src/hid/audio.h ****     */
  86:../../libDaisy//src/hid/audio.h ****     typedef float* InterleavingOutputBuffer;
  87:../../libDaisy//src/hid/audio.h **** 
  88:../../libDaisy//src/hid/audio.h ****     /** Interleaving Audio Callback 
  89:../../libDaisy//src/hid/audio.h ****      * Interleaving audio callbacks in daisy must be of this type
  90:../../libDaisy//src/hid/audio.h ****      */
  91:../../libDaisy//src/hid/audio.h ****     typedef void (*InterleavingAudioCallback)(InterleavingInputBuffer  in,
  92:../../libDaisy//src/hid/audio.h ****                                               InterleavingOutputBuffer out,
  93:../../libDaisy//src/hid/audio.h ****                                               size_t                   size);
  94:../../libDaisy//src/hid/audio.h **** 
  95:../../libDaisy//src/hid/audio.h ****     AudioHandle() : pimpl_(nullptr) {}
  96:../../libDaisy//src/hid/audio.h ****     ~AudioHandle() {}
  56              		.loc 5 96 5 is_stmt 1 view .LVU7
  57              		.loc 5 96 5 is_stmt 0 view .LVU8
  58              	.LBE613:
  59              		.loc 1 22 19 view .LVU9
  60 0000 7047     		bx	lr
  61              		.cfi_endproc
  62              	.LFE2555:
  64              		.weak	_ZN5daisy9DaisySeedD1Ev
  65              		.thumb_set _ZN5daisy9DaisySeedD1Ev,_ZN5daisy9DaisySeedD2Ev
  66 0002 00BF     		.section	.text._ZN7daisysp5AdEnvD2Ev,"axG",%progbits,_ZN7daisysp5AdEnvD5Ev,comdat
  67              		.align	1
  68              		.p2align 2,,3
  69              		.weak	_ZN7daisysp5AdEnvD2Ev
  70              		.syntax unified
  71              		.thumb
  72              		.thumb_func
  73              		.fpu fpv5-d16
  75              	_ZN7daisysp5AdEnvD2Ev:
  76              	.LVL1:
  77              	.LFB2564:
  78              		.file 6 "../../DaisySP//Source/Control/adenv.h"
   1:../../DaisySP//Source/Control/adenv.h **** /*
   2:../../DaisySP//Source/Control/adenv.h **** Copyright (c) 2020 Electrosmith, Corp
   3:../../DaisySP//Source/Control/adenv.h **** 
   4:../../DaisySP//Source/Control/adenv.h **** Use of this source code is governed by an MIT-style
   5:../../DaisySP//Source/Control/adenv.h **** license that can be found in the LICENSE file or at
   6:../../DaisySP//Source/Control/adenv.h **** https://opensource.org/licenses/MIT.
   7:../../DaisySP//Source/Control/adenv.h **** */
   8:../../DaisySP//Source/Control/adenv.h **** 
   9:../../DaisySP//Source/Control/adenv.h **** #pragma once
  10:../../DaisySP//Source/Control/adenv.h **** #ifndef ADENV_H
  11:../../DaisySP//Source/Control/adenv.h **** #define ADENV_H
  12:../../DaisySP//Source/Control/adenv.h **** #include <stdint.h>
  13:../../DaisySP//Source/Control/adenv.h **** #ifdef __cplusplus
  14:../../DaisySP//Source/Control/adenv.h **** 
ARM GAS  C:\Users\evang\AppData\Local\Temp\ccUReI4Z.s 			page 9


  15:../../DaisySP//Source/Control/adenv.h **** namespace daisysp
  16:../../DaisySP//Source/Control/adenv.h **** {
  17:../../DaisySP//Source/Control/adenv.h **** /** Distinct stages that the phase of the envelope can be located in.
  18:../../DaisySP//Source/Control/adenv.h ****     @see AdEnv
  19:../../DaisySP//Source/Control/adenv.h **** */
  20:../../DaisySP//Source/Control/adenv.h **** enum AdEnvSegment
  21:../../DaisySP//Source/Control/adenv.h **** {
  22:../../DaisySP//Source/Control/adenv.h ****     /** located at phase location 0, and not currently running */
  23:../../DaisySP//Source/Control/adenv.h ****     ADENV_SEG_IDLE,
  24:../../DaisySP//Source/Control/adenv.h ****     /** First segment of envelope where phase moves from MIN value to MAX value */
  25:../../DaisySP//Source/Control/adenv.h ****     ADENV_SEG_ATTACK,
  26:../../DaisySP//Source/Control/adenv.h ****     /** Second segment of envelope where phase moves from MAX to MIN value */
  27:../../DaisySP//Source/Control/adenv.h ****     ADENV_SEG_DECAY,
  28:../../DaisySP//Source/Control/adenv.h ****     /** The final segment of the envelope (currently decay) */
  29:../../DaisySP//Source/Control/adenv.h ****     ADENV_SEG_LAST,
  30:../../DaisySP//Source/Control/adenv.h **** };
  31:../../DaisySP//Source/Control/adenv.h **** 
  32:../../DaisySP//Source/Control/adenv.h **** /** Trigger-able envelope with adjustable min/max, and independent per-segment time control.
  33:../../DaisySP//Source/Control/adenv.h **** 
  34:../../DaisySP//Source/Control/adenv.h ****     \author shensley
  35:../../DaisySP//Source/Control/adenv.h ****     \todo - Add Cycling
  36:../../DaisySP//Source/Control/adenv.h ****     \todo - Implement Curve (its only linear for now).
  37:../../DaisySP//Source/Control/adenv.h ****     \todo - Maybe make this an ADsr_ that has AD/AR/Asr_ modes.
  38:../../DaisySP//Source/Control/adenv.h ****  */
  39:../../DaisySP//Source/Control/adenv.h **** class AdEnv
  40:../../DaisySP//Source/Control/adenv.h **** {
  41:../../DaisySP//Source/Control/adenv.h ****   public:
  42:../../DaisySP//Source/Control/adenv.h ****     AdEnv() {}
  43:../../DaisySP//Source/Control/adenv.h ****     ~AdEnv() {}
  79              		.loc 6 43 5 is_stmt 1 view -0
  80              		.cfi_startproc
  81              		@ args = 0, pretend = 0, frame = 0
  82              		@ frame_needed = 0, uses_anonymous_args = 0
  83              		@ link register save eliminated.
  84              		.loc 6 43 15 is_stmt 0 view .LVU11
  85 0000 7047     		bx	lr
  86              		.cfi_endproc
  87              	.LFE2564:
  89              		.weak	_ZN7daisysp5AdEnvD1Ev
  90              		.thumb_set _ZN7daisysp5AdEnvD1Ev,_ZN7daisysp5AdEnvD2Ev
  91              		.section	.text._ZN7daisysp10OscillatorD2Ev,"axG",%progbits,_ZN7daisysp10OscillatorD5Ev,comdat
  92              		.align	1
  93              		.p2align 2,,3
  94              		.weak	_ZN7daisysp10OscillatorD2Ev
  95              		.syntax unified
  96              		.thumb
  97              		.thumb_func
  98              		.fpu fpv5-d16
 100              	_ZN7daisysp10OscillatorD2Ev:
 101              	.LVL2:
 102              	.LFB4240:
 103              		.file 7 "../../DaisySP//Source/Synthesis/oscillator.h"
   1:../../DaisySP//Source/Synthesis/oscillator.h **** /*
   2:../../DaisySP//Source/Synthesis/oscillator.h **** Copyright (c) 2020 Electrosmith, Corp
   3:../../DaisySP//Source/Synthesis/oscillator.h **** 
   4:../../DaisySP//Source/Synthesis/oscillator.h **** Use of this source code is governed by an MIT-style
   5:../../DaisySP//Source/Synthesis/oscillator.h **** license that can be found in the LICENSE file or at
ARM GAS  C:\Users\evang\AppData\Local\Temp\ccUReI4Z.s 			page 10


   6:../../DaisySP//Source/Synthesis/oscillator.h **** https://opensource.org/licenses/MIT.
   7:../../DaisySP//Source/Synthesis/oscillator.h **** */
   8:../../DaisySP//Source/Synthesis/oscillator.h **** 
   9:../../DaisySP//Source/Synthesis/oscillator.h **** #pragma once
  10:../../DaisySP//Source/Synthesis/oscillator.h **** #ifndef DSY_OSCILLATOR_H
  11:../../DaisySP//Source/Synthesis/oscillator.h **** #define DSY_OSCILLATOR_H
  12:../../DaisySP//Source/Synthesis/oscillator.h **** #include <stdint.h>
  13:../../DaisySP//Source/Synthesis/oscillator.h **** #include "Utility/dsp.h"
  14:../../DaisySP//Source/Synthesis/oscillator.h **** #ifdef __cplusplus
  15:../../DaisySP//Source/Synthesis/oscillator.h **** 
  16:../../DaisySP//Source/Synthesis/oscillator.h **** namespace daisysp
  17:../../DaisySP//Source/Synthesis/oscillator.h **** {
  18:../../DaisySP//Source/Synthesis/oscillator.h **** /** Synthesis of several waveforms, including polyBLEP bandlimited waveforms.
  19:../../DaisySP//Source/Synthesis/oscillator.h **** */
  20:../../DaisySP//Source/Synthesis/oscillator.h **** class Oscillator
  21:../../DaisySP//Source/Synthesis/oscillator.h **** {
  22:../../DaisySP//Source/Synthesis/oscillator.h ****   public:
  23:../../DaisySP//Source/Synthesis/oscillator.h ****     Oscillator() {}
  24:../../DaisySP//Source/Synthesis/oscillator.h ****     ~Oscillator() {}
 104              		.loc 7 24 5 is_stmt 1 view -0
 105              		.cfi_startproc
 106              		@ args = 0, pretend = 0, frame = 0
 107              		@ frame_needed = 0, uses_anonymous_args = 0
 108              		@ link register save eliminated.
 109              		.loc 7 24 20 is_stmt 0 view .LVU13
 110 0000 7047     		bx	lr
 111              		.cfi_endproc
 112              	.LFE4240:
 114              		.weak	_ZN7daisysp10OscillatorD1Ev
 115              		.thumb_set _ZN7daisysp10OscillatorD1Ev,_ZN7daisysp10OscillatorD2Ev
 116              		.section	.text._ZN7daisysp3SvfD2Ev,"axG",%progbits,_ZN7daisysp3SvfD5Ev,comdat
 117              		.align	1
 118              		.p2align 2,,3
 119              		.weak	_ZN7daisysp3SvfD2Ev
 120              		.syntax unified
 121              		.thumb
 122              		.thumb_func
 123              		.fpu fpv5-d16
 125              	_ZN7daisysp3SvfD2Ev:
 126              	.LVL3:
 127              	.LFB4257:
 128              		.file 8 "../../DaisySP//Source/Filters/svf.h"
   1:../../DaisySP//Source/Filters/svf.h **** /*
   2:../../DaisySP//Source/Filters/svf.h **** Copyright (c) 2020 Electrosmith, Corp
   3:../../DaisySP//Source/Filters/svf.h **** 
   4:../../DaisySP//Source/Filters/svf.h **** Use of this source code is governed by an MIT-style
   5:../../DaisySP//Source/Filters/svf.h **** license that can be found in the LICENSE file or at
   6:../../DaisySP//Source/Filters/svf.h **** https://opensource.org/licenses/MIT.
   7:../../DaisySP//Source/Filters/svf.h **** */
   8:../../DaisySP//Source/Filters/svf.h **** 
   9:../../DaisySP//Source/Filters/svf.h **** #pragma once
  10:../../DaisySP//Source/Filters/svf.h **** #ifndef DSY_SVF_H
  11:../../DaisySP//Source/Filters/svf.h **** #define DSY_SVF_H
  12:../../DaisySP//Source/Filters/svf.h **** 
  13:../../DaisySP//Source/Filters/svf.h **** namespace daisysp
  14:../../DaisySP//Source/Filters/svf.h **** {
  15:../../DaisySP//Source/Filters/svf.h **** /**      Double Sampled, Stable State Variable Filter
ARM GAS  C:\Users\evang\AppData\Local\Temp\ccUReI4Z.s 			page 11


  16:../../DaisySP//Source/Filters/svf.h **** 
  17:../../DaisySP//Source/Filters/svf.h **** Credit to Andrew Simper from musicdsp.org
  18:../../DaisySP//Source/Filters/svf.h **** 
  19:../../DaisySP//Source/Filters/svf.h **** This is his "State Variable Filter (Double Sampled, Stable)"
  20:../../DaisySP//Source/Filters/svf.h **** 
  21:../../DaisySP//Source/Filters/svf.h **** Additional thanks to Laurent de Soras for stability limit, and 
  22:../../DaisySP//Source/Filters/svf.h **** Stefan Diedrichsen for the correct notch output
  23:../../DaisySP//Source/Filters/svf.h **** 
  24:../../DaisySP//Source/Filters/svf.h **** Ported by: Stephen Hensley
  25:../../DaisySP//Source/Filters/svf.h **** */
  26:../../DaisySP//Source/Filters/svf.h **** class Svf
  27:../../DaisySP//Source/Filters/svf.h **** {
  28:../../DaisySP//Source/Filters/svf.h ****   public:
  29:../../DaisySP//Source/Filters/svf.h ****     Svf() {}
  30:../../DaisySP//Source/Filters/svf.h ****     ~Svf() {}
 129              		.loc 8 30 5 is_stmt 1 view -0
 130              		.cfi_startproc
 131              		@ args = 0, pretend = 0, frame = 0
 132              		@ frame_needed = 0, uses_anonymous_args = 0
 133              		@ link register save eliminated.
 134              		.loc 8 30 13 is_stmt 0 view .LVU15
 135 0000 7047     		bx	lr
 136              		.cfi_endproc
 137              	.LFE4257:
 139              		.weak	_ZN7daisysp3SvfD1Ev
 140              		.thumb_set _ZN7daisysp3SvfD1Ev,_ZN7daisysp3SvfD2Ev
 141              		.section	.text._ZN5daisy11OledDisplayINS_13SSD130xDriverILj128ELj64ENS_19SSD130xI2CTransportEEEE4F
 142              		.align	1
 143              		.p2align 2,,3
 144              		.weak	_ZN5daisy11OledDisplayINS_13SSD130xDriverILj128ELj64ENS_19SSD130xI2CTransportEEEE4FillEb
 145              		.syntax unified
 146              		.thumb
 147              		.thumb_func
 148              		.fpu fpv5-d16
 150              	_ZN5daisy11OledDisplayINS_13SSD130xDriverILj128ELj64ENS_19SSD130xI2CTransportEEEE4FillEb:
 151              	.LVL4:
 152              	.LFB5041:
 153              		.file 9 "../../libDaisy//src/hid/disp/oled_display.h"
   1:../../libDaisy//src/hid/disp/oled_display.h **** #pragma once
   2:../../libDaisy//src/hid/disp/oled_display.h **** #ifndef DSY_OLED_DISPLAY_H
   3:../../libDaisy//src/hid/disp/oled_display.h **** #define DSY_OLED_DISPLAY_H /**< Macro */
   4:../../libDaisy//src/hid/disp/oled_display.h **** 
   5:../../libDaisy//src/hid/disp/oled_display.h **** #include "display.h"
   6:../../libDaisy//src/hid/disp/oled_display.h **** 
   7:../../libDaisy//src/hid/disp/oled_display.h **** namespace daisy
   8:../../libDaisy//src/hid/disp/oled_display.h **** {
   9:../../libDaisy//src/hid/disp/oled_display.h **** /** 
  10:../../libDaisy//src/hid/disp/oled_display.h ****  * This class is for drawing to a monochrome OLED display. 
  11:../../libDaisy//src/hid/disp/oled_display.h ****  * @ingroup device
  12:../../libDaisy//src/hid/disp/oled_display.h **** */
  13:../../libDaisy//src/hid/disp/oled_display.h **** template <typename DisplayDriver>
  14:../../libDaisy//src/hid/disp/oled_display.h **** class OledDisplay : public OneBitGraphicsDisplayImpl<OledDisplay<DisplayDriver>>
  15:../../libDaisy//src/hid/disp/oled_display.h **** {
  16:../../libDaisy//src/hid/disp/oled_display.h ****   public:
  17:../../libDaisy//src/hid/disp/oled_display.h ****     OledDisplay() {}
  18:../../libDaisy//src/hid/disp/oled_display.h ****     virtual ~OledDisplay() {}
  19:../../libDaisy//src/hid/disp/oled_display.h **** 
ARM GAS  C:\Users\evang\AppData\Local\Temp\ccUReI4Z.s 			page 12


  20:../../libDaisy//src/hid/disp/oled_display.h ****     struct Config
  21:../../libDaisy//src/hid/disp/oled_display.h ****     {
  22:../../libDaisy//src/hid/disp/oled_display.h ****         typename DisplayDriver::Config driver_config;
  23:../../libDaisy//src/hid/disp/oled_display.h ****     };
  24:../../libDaisy//src/hid/disp/oled_display.h **** 
  25:../../libDaisy//src/hid/disp/oled_display.h ****     void Init(Config config) { driver_.Init(config.driver_config); }
  26:../../libDaisy//src/hid/disp/oled_display.h **** 
  27:../../libDaisy//src/hid/disp/oled_display.h ****     uint16_t Height() const override { return driver_.Height(); }
  28:../../libDaisy//src/hid/disp/oled_display.h ****     uint16_t Width() const override { return driver_.Width(); }
  29:../../libDaisy//src/hid/disp/oled_display.h **** 
  30:../../libDaisy//src/hid/disp/oled_display.h ****     /** 
  31:../../libDaisy//src/hid/disp/oled_display.h ****     Fills the entire display with either on/off.
  32:../../libDaisy//src/hid/disp/oled_display.h ****     \param on Sets on or off.
  33:../../libDaisy//src/hid/disp/oled_display.h ****     */
  34:../../libDaisy//src/hid/disp/oled_display.h ****     void Fill(bool on) override { driver_.Fill(on); }
 154              		.loc 9 34 10 is_stmt 1 view -0
 155              		.cfi_startproc
 156              		@ args = 0, pretend = 0, frame = 0
 157              		@ frame_needed = 0, uses_anonymous_args = 0
 158              		@ link register save eliminated.
 159              	.LBB614:
 160              	.LBI614:
 161              		.file 10 "../../libDaisy//src/dev/oled_ssd130x.h"
   1:../../libDaisy//src/dev/oled_ssd130x.h **** #pragma once
   2:../../libDaisy//src/dev/oled_ssd130x.h **** #ifndef SA_OLED_SSD130X_H
   3:../../libDaisy//src/dev/oled_ssd130x.h **** #define SA_OLED_SSD130X_H /**< & */
   4:../../libDaisy//src/dev/oled_ssd130x.h **** 
   5:../../libDaisy//src/dev/oled_ssd130x.h **** #include "per/i2c.h"
   6:../../libDaisy//src/dev/oled_ssd130x.h **** #include "per/spi.h"
   7:../../libDaisy//src/dev/oled_ssd130x.h **** #include "per/gpio.h"
   8:../../libDaisy//src/dev/oled_ssd130x.h **** #include "sys/system.h"
   9:../../libDaisy//src/dev/oled_ssd130x.h **** 
  10:../../libDaisy//src/dev/oled_ssd130x.h **** namespace daisy
  11:../../libDaisy//src/dev/oled_ssd130x.h **** {
  12:../../libDaisy//src/dev/oled_ssd130x.h **** /**
  13:../../libDaisy//src/dev/oled_ssd130x.h ****  * I2C Transport for SSD1306 / SSD1309 OLED display devices
  14:../../libDaisy//src/dev/oled_ssd130x.h ****  */
  15:../../libDaisy//src/dev/oled_ssd130x.h **** class SSD130xI2CTransport
  16:../../libDaisy//src/dev/oled_ssd130x.h **** {
  17:../../libDaisy//src/dev/oled_ssd130x.h ****   public:
  18:../../libDaisy//src/dev/oled_ssd130x.h ****     struct Config
  19:../../libDaisy//src/dev/oled_ssd130x.h ****     {
  20:../../libDaisy//src/dev/oled_ssd130x.h ****         Config()
  21:../../libDaisy//src/dev/oled_ssd130x.h ****         {
  22:../../libDaisy//src/dev/oled_ssd130x.h ****             // Intialize using defaults
  23:../../libDaisy//src/dev/oled_ssd130x.h ****             Defaults();
  24:../../libDaisy//src/dev/oled_ssd130x.h ****         }
  25:../../libDaisy//src/dev/oled_ssd130x.h ****         I2CHandle::Config i2c_config;
  26:../../libDaisy//src/dev/oled_ssd130x.h ****         uint8_t           i2c_address;
  27:../../libDaisy//src/dev/oled_ssd130x.h ****         void              Defaults()
  28:../../libDaisy//src/dev/oled_ssd130x.h ****         {
  29:../../libDaisy//src/dev/oled_ssd130x.h ****             i2c_config.periph         = I2CHandle::Config::Peripheral::I2C_1;
  30:../../libDaisy//src/dev/oled_ssd130x.h ****             i2c_config.speed          = I2CHandle::Config::Speed::I2C_1MHZ;
  31:../../libDaisy//src/dev/oled_ssd130x.h ****             i2c_config.mode           = I2CHandle::Config::Mode::I2C_MASTER;
  32:../../libDaisy//src/dev/oled_ssd130x.h ****             i2c_config.pin_config.scl = {DSY_GPIOB, 8};
  33:../../libDaisy//src/dev/oled_ssd130x.h ****             i2c_config.pin_config.sda = {DSY_GPIOB, 9};
  34:../../libDaisy//src/dev/oled_ssd130x.h ****             i2c_address               = 0x3C;
ARM GAS  C:\Users\evang\AppData\Local\Temp\ccUReI4Z.s 			page 13


  35:../../libDaisy//src/dev/oled_ssd130x.h ****         }
  36:../../libDaisy//src/dev/oled_ssd130x.h ****     };
  37:../../libDaisy//src/dev/oled_ssd130x.h ****     void Init(const Config& config)
  38:../../libDaisy//src/dev/oled_ssd130x.h ****     {
  39:../../libDaisy//src/dev/oled_ssd130x.h ****         i2c_address_ = config.i2c_address;
  40:../../libDaisy//src/dev/oled_ssd130x.h ****         i2c_.Init(config.i2c_config);
  41:../../libDaisy//src/dev/oled_ssd130x.h ****     };
  42:../../libDaisy//src/dev/oled_ssd130x.h ****     void SendCommand(uint8_t cmd)
  43:../../libDaisy//src/dev/oled_ssd130x.h ****     {
  44:../../libDaisy//src/dev/oled_ssd130x.h ****         uint8_t buf[2] = {0X00, cmd};
  45:../../libDaisy//src/dev/oled_ssd130x.h ****         i2c_.TransmitBlocking(i2c_address_, buf, 2, 1000);
  46:../../libDaisy//src/dev/oled_ssd130x.h ****     };
  47:../../libDaisy//src/dev/oled_ssd130x.h **** 
  48:../../libDaisy//src/dev/oled_ssd130x.h ****     void SendData(uint8_t* buff, size_t size)
  49:../../libDaisy//src/dev/oled_ssd130x.h ****     {
  50:../../libDaisy//src/dev/oled_ssd130x.h ****         for(size_t i = 0; i < size; i++)
  51:../../libDaisy//src/dev/oled_ssd130x.h ****         {
  52:../../libDaisy//src/dev/oled_ssd130x.h ****             uint8_t buf[2] = {0X40, buff[i]};
  53:../../libDaisy//src/dev/oled_ssd130x.h ****             i2c_.TransmitBlocking(i2c_address_, buf, 2, 1000);
  54:../../libDaisy//src/dev/oled_ssd130x.h ****         }
  55:../../libDaisy//src/dev/oled_ssd130x.h ****     };
  56:../../libDaisy//src/dev/oled_ssd130x.h **** 
  57:../../libDaisy//src/dev/oled_ssd130x.h ****   private:
  58:../../libDaisy//src/dev/oled_ssd130x.h ****     daisy::I2CHandle i2c_;
  59:../../libDaisy//src/dev/oled_ssd130x.h ****     uint8_t          i2c_address_;
  60:../../libDaisy//src/dev/oled_ssd130x.h **** };
  61:../../libDaisy//src/dev/oled_ssd130x.h **** 
  62:../../libDaisy//src/dev/oled_ssd130x.h **** /**
  63:../../libDaisy//src/dev/oled_ssd130x.h ****  * 4 Wire SPI Transport for SSD1306 / SSD1309 OLED display devices
  64:../../libDaisy//src/dev/oled_ssd130x.h ****  */
  65:../../libDaisy//src/dev/oled_ssd130x.h **** class SSD130x4WireSpiTransport
  66:../../libDaisy//src/dev/oled_ssd130x.h **** {
  67:../../libDaisy//src/dev/oled_ssd130x.h ****   public:
  68:../../libDaisy//src/dev/oled_ssd130x.h ****     struct Config
  69:../../libDaisy//src/dev/oled_ssd130x.h ****     {
  70:../../libDaisy//src/dev/oled_ssd130x.h ****         Config()
  71:../../libDaisy//src/dev/oled_ssd130x.h ****         {
  72:../../libDaisy//src/dev/oled_ssd130x.h ****             // Initialize using defaults
  73:../../libDaisy//src/dev/oled_ssd130x.h ****             Defaults();
  74:../../libDaisy//src/dev/oled_ssd130x.h ****         }
  75:../../libDaisy//src/dev/oled_ssd130x.h ****         SpiHandle::Config spi_config;
  76:../../libDaisy//src/dev/oled_ssd130x.h ****         struct
  77:../../libDaisy//src/dev/oled_ssd130x.h ****         {
  78:../../libDaisy//src/dev/oled_ssd130x.h ****             dsy_gpio_pin dc;    /**< & */
  79:../../libDaisy//src/dev/oled_ssd130x.h ****             dsy_gpio_pin reset; /**< & */
  80:../../libDaisy//src/dev/oled_ssd130x.h ****         } pin_config;
  81:../../libDaisy//src/dev/oled_ssd130x.h ****         void Defaults()
  82:../../libDaisy//src/dev/oled_ssd130x.h ****         {
  83:../../libDaisy//src/dev/oled_ssd130x.h ****             // SPI peripheral config
  84:../../libDaisy//src/dev/oled_ssd130x.h ****             spi_config.periph = SpiHandle::Config::Peripheral::SPI_1;
  85:../../libDaisy//src/dev/oled_ssd130x.h ****             spi_config.mode   = SpiHandle::Config::Mode::MASTER;
  86:../../libDaisy//src/dev/oled_ssd130x.h ****             spi_config.direction
  87:../../libDaisy//src/dev/oled_ssd130x.h ****                 = SpiHandle::Config::Direction::TWO_LINES_TX_ONLY;
  88:../../libDaisy//src/dev/oled_ssd130x.h ****             spi_config.datasize       = 8;
  89:../../libDaisy//src/dev/oled_ssd130x.h ****             spi_config.clock_polarity = SpiHandle::Config::ClockPolarity::LOW;
  90:../../libDaisy//src/dev/oled_ssd130x.h ****             spi_config.clock_phase    = SpiHandle::Config::ClockPhase::ONE_EDGE;
  91:../../libDaisy//src/dev/oled_ssd130x.h ****             spi_config.nss            = SpiHandle::Config::NSS::HARD_OUTPUT;
ARM GAS  C:\Users\evang\AppData\Local\Temp\ccUReI4Z.s 			page 14


  92:../../libDaisy//src/dev/oled_ssd130x.h ****             spi_config.baud_prescaler = SpiHandle::Config::BaudPrescaler::PS_8;
  93:../../libDaisy//src/dev/oled_ssd130x.h ****             // SPI pin config
  94:../../libDaisy//src/dev/oled_ssd130x.h ****             spi_config.pin_config.sclk = {DSY_GPIOG, 11};
  95:../../libDaisy//src/dev/oled_ssd130x.h ****             spi_config.pin_config.miso = {DSY_GPIOX, 0};
  96:../../libDaisy//src/dev/oled_ssd130x.h ****             spi_config.pin_config.mosi = {DSY_GPIOB, 5};
  97:../../libDaisy//src/dev/oled_ssd130x.h ****             spi_config.pin_config.nss  = {DSY_GPIOG, 10};
  98:../../libDaisy//src/dev/oled_ssd130x.h ****             // SSD130x control pin config
  99:../../libDaisy//src/dev/oled_ssd130x.h ****             pin_config.dc    = {DSY_GPIOB, 4};
 100:../../libDaisy//src/dev/oled_ssd130x.h ****             pin_config.reset = {DSY_GPIOB, 15};
 101:../../libDaisy//src/dev/oled_ssd130x.h ****         }
 102:../../libDaisy//src/dev/oled_ssd130x.h ****     };
 103:../../libDaisy//src/dev/oled_ssd130x.h ****     void Init(const Config& config)
 104:../../libDaisy//src/dev/oled_ssd130x.h ****     {
 105:../../libDaisy//src/dev/oled_ssd130x.h ****         // Initialize both GPIO
 106:../../libDaisy//src/dev/oled_ssd130x.h ****         pin_dc_.mode = DSY_GPIO_MODE_OUTPUT_PP;
 107:../../libDaisy//src/dev/oled_ssd130x.h ****         pin_dc_.pin  = config.pin_config.dc;
 108:../../libDaisy//src/dev/oled_ssd130x.h ****         dsy_gpio_init(&pin_dc_);
 109:../../libDaisy//src/dev/oled_ssd130x.h ****         pin_reset_.mode = DSY_GPIO_MODE_OUTPUT_PP;
 110:../../libDaisy//src/dev/oled_ssd130x.h ****         pin_reset_.pin  = config.pin_config.reset;
 111:../../libDaisy//src/dev/oled_ssd130x.h ****         dsy_gpio_init(&pin_reset_);
 112:../../libDaisy//src/dev/oled_ssd130x.h **** 
 113:../../libDaisy//src/dev/oled_ssd130x.h ****         // Initialize SPI
 114:../../libDaisy//src/dev/oled_ssd130x.h ****         spi_.Init(config.spi_config);
 115:../../libDaisy//src/dev/oled_ssd130x.h **** 
 116:../../libDaisy//src/dev/oled_ssd130x.h ****         // Reset and Configure OLED.
 117:../../libDaisy//src/dev/oled_ssd130x.h ****         dsy_gpio_write(&pin_reset_, 0);
 118:../../libDaisy//src/dev/oled_ssd130x.h ****         System::Delay(10);
 119:../../libDaisy//src/dev/oled_ssd130x.h ****         dsy_gpio_write(&pin_reset_, 1);
 120:../../libDaisy//src/dev/oled_ssd130x.h ****         System::Delay(10);
 121:../../libDaisy//src/dev/oled_ssd130x.h ****     };
 122:../../libDaisy//src/dev/oled_ssd130x.h ****     void SendCommand(uint8_t cmd)
 123:../../libDaisy//src/dev/oled_ssd130x.h ****     {
 124:../../libDaisy//src/dev/oled_ssd130x.h ****         dsy_gpio_write(&pin_dc_, 0);
 125:../../libDaisy//src/dev/oled_ssd130x.h ****         spi_.BlockingTransmit(&cmd, 1);
 126:../../libDaisy//src/dev/oled_ssd130x.h ****     };
 127:../../libDaisy//src/dev/oled_ssd130x.h **** 
 128:../../libDaisy//src/dev/oled_ssd130x.h ****     void SendData(uint8_t* buff, size_t size)
 129:../../libDaisy//src/dev/oled_ssd130x.h ****     {
 130:../../libDaisy//src/dev/oled_ssd130x.h ****         dsy_gpio_write(&pin_dc_, 1);
 131:../../libDaisy//src/dev/oled_ssd130x.h ****         spi_.BlockingTransmit(buff, size);
 132:../../libDaisy//src/dev/oled_ssd130x.h ****     };
 133:../../libDaisy//src/dev/oled_ssd130x.h **** 
 134:../../libDaisy//src/dev/oled_ssd130x.h ****   private:
 135:../../libDaisy//src/dev/oled_ssd130x.h ****     SpiHandle spi_;
 136:../../libDaisy//src/dev/oled_ssd130x.h ****     dsy_gpio  pin_reset_;
 137:../../libDaisy//src/dev/oled_ssd130x.h ****     dsy_gpio  pin_dc_;
 138:../../libDaisy//src/dev/oled_ssd130x.h **** };
 139:../../libDaisy//src/dev/oled_ssd130x.h **** 
 140:../../libDaisy//src/dev/oled_ssd130x.h **** /**
 141:../../libDaisy//src/dev/oled_ssd130x.h ****  * Soft SPI Transport for SSD1306 / SSD1309 OLED display devices
 142:../../libDaisy//src/dev/oled_ssd130x.h ****  */
 143:../../libDaisy//src/dev/oled_ssd130x.h **** class SSD130x4WireSoftSpiTransport
 144:../../libDaisy//src/dev/oled_ssd130x.h **** {
 145:../../libDaisy//src/dev/oled_ssd130x.h ****   public:
 146:../../libDaisy//src/dev/oled_ssd130x.h ****     struct Config
 147:../../libDaisy//src/dev/oled_ssd130x.h ****     {
 148:../../libDaisy//src/dev/oled_ssd130x.h ****         Config()
ARM GAS  C:\Users\evang\AppData\Local\Temp\ccUReI4Z.s 			page 15


 149:../../libDaisy//src/dev/oled_ssd130x.h ****         {
 150:../../libDaisy//src/dev/oled_ssd130x.h ****             // Initialize using defaults
 151:../../libDaisy//src/dev/oled_ssd130x.h ****             Defaults();
 152:../../libDaisy//src/dev/oled_ssd130x.h ****         }
 153:../../libDaisy//src/dev/oled_ssd130x.h ****         struct
 154:../../libDaisy//src/dev/oled_ssd130x.h ****         {
 155:../../libDaisy//src/dev/oled_ssd130x.h ****             uint32_t     sclk_delay;
 156:../../libDaisy//src/dev/oled_ssd130x.h ****             dsy_gpio_pin sclk;
 157:../../libDaisy//src/dev/oled_ssd130x.h ****             dsy_gpio_pin mosi;
 158:../../libDaisy//src/dev/oled_ssd130x.h ****             dsy_gpio_pin dc;
 159:../../libDaisy//src/dev/oled_ssd130x.h ****             dsy_gpio_pin reset;
 160:../../libDaisy//src/dev/oled_ssd130x.h ****         } pin_config;
 161:../../libDaisy//src/dev/oled_ssd130x.h ****         void Defaults()
 162:../../libDaisy//src/dev/oled_ssd130x.h ****         {
 163:../../libDaisy//src/dev/oled_ssd130x.h ****             pin_config.sclk_delay = 0; // fast as possible?!
 164:../../libDaisy//src/dev/oled_ssd130x.h ****             // SPI peripheral config
 165:../../libDaisy//src/dev/oled_ssd130x.h ****             pin_config.sclk = {DSY_GPIOD, 3}; /**< D10 - SPI2 SCK  */
 166:../../libDaisy//src/dev/oled_ssd130x.h ****             pin_config.mosi = {DSY_GPIOC, 3}; /**< D9  - SPI2 MOSI */
 167:../../libDaisy//src/dev/oled_ssd130x.h ****             // SSD130x control pin config
 168:../../libDaisy//src/dev/oled_ssd130x.h ****             pin_config.dc    = {DSY_GPIOC, 11}; //D2
 169:../../libDaisy//src/dev/oled_ssd130x.h ****             pin_config.reset = {DSY_GPIOC, 10}; //D3
 170:../../libDaisy//src/dev/oled_ssd130x.h ****         }
 171:../../libDaisy//src/dev/oled_ssd130x.h ****     };
 172:../../libDaisy//src/dev/oled_ssd130x.h ****     void Init(const Config& config)
 173:../../libDaisy//src/dev/oled_ssd130x.h ****     {
 174:../../libDaisy//src/dev/oled_ssd130x.h ****         // Initialize both GPIO
 175:../../libDaisy//src/dev/oled_ssd130x.h ****         pin_sclk_.mode = DSY_GPIO_MODE_OUTPUT_PP;
 176:../../libDaisy//src/dev/oled_ssd130x.h ****         pin_sclk_.pin  = config.pin_config.sclk;
 177:../../libDaisy//src/dev/oled_ssd130x.h ****         dsy_gpio_init(&pin_sclk_);
 178:../../libDaisy//src/dev/oled_ssd130x.h ****         dsy_gpio_write(&pin_sclk_, 1); //ClockPolarity::LOW
 179:../../libDaisy//src/dev/oled_ssd130x.h ****         clk_delay      = config.pin_config.sclk_delay;
 180:../../libDaisy//src/dev/oled_ssd130x.h ****         pin_mosi_.mode = DSY_GPIO_MODE_OUTPUT_PP;
 181:../../libDaisy//src/dev/oled_ssd130x.h ****         pin_mosi_.pin  = config.pin_config.mosi;
 182:../../libDaisy//src/dev/oled_ssd130x.h ****         dsy_gpio_init(&pin_mosi_);
 183:../../libDaisy//src/dev/oled_ssd130x.h ****         dsy_gpio_write(&pin_mosi_, 0);
 184:../../libDaisy//src/dev/oled_ssd130x.h **** 
 185:../../libDaisy//src/dev/oled_ssd130x.h ****         pin_dc_.mode = DSY_GPIO_MODE_OUTPUT_PP;
 186:../../libDaisy//src/dev/oled_ssd130x.h ****         pin_dc_.pin  = config.pin_config.dc;
 187:../../libDaisy//src/dev/oled_ssd130x.h ****         dsy_gpio_init(&pin_dc_);
 188:../../libDaisy//src/dev/oled_ssd130x.h ****         pin_reset_.mode = DSY_GPIO_MODE_OUTPUT_PP;
 189:../../libDaisy//src/dev/oled_ssd130x.h ****         pin_reset_.pin  = config.pin_config.reset;
 190:../../libDaisy//src/dev/oled_ssd130x.h ****         dsy_gpio_init(&pin_reset_);
 191:../../libDaisy//src/dev/oled_ssd130x.h **** 
 192:../../libDaisy//src/dev/oled_ssd130x.h ****         // Reset and Configure OLED.
 193:../../libDaisy//src/dev/oled_ssd130x.h ****         dsy_gpio_write(&pin_reset_, 0);
 194:../../libDaisy//src/dev/oled_ssd130x.h ****         System::Delay(10);
 195:../../libDaisy//src/dev/oled_ssd130x.h ****         dsy_gpio_write(&pin_reset_, 1);
 196:../../libDaisy//src/dev/oled_ssd130x.h ****         System::Delay(10);
 197:../../libDaisy//src/dev/oled_ssd130x.h ****     };
 198:../../libDaisy//src/dev/oled_ssd130x.h ****     void SendCommand(uint8_t cmd)
 199:../../libDaisy//src/dev/oled_ssd130x.h ****     {
 200:../../libDaisy//src/dev/oled_ssd130x.h ****         dsy_gpio_write(&pin_dc_, 0);
 201:../../libDaisy//src/dev/oled_ssd130x.h ****         SoftSpiTransmit(cmd);
 202:../../libDaisy//src/dev/oled_ssd130x.h ****     };
 203:../../libDaisy//src/dev/oled_ssd130x.h **** 
 204:../../libDaisy//src/dev/oled_ssd130x.h ****     void SendData(uint8_t* buff, size_t size)
 205:../../libDaisy//src/dev/oled_ssd130x.h ****     {
ARM GAS  C:\Users\evang\AppData\Local\Temp\ccUReI4Z.s 			page 16


 206:../../libDaisy//src/dev/oled_ssd130x.h ****         dsy_gpio_write(&pin_dc_, 1);
 207:../../libDaisy//src/dev/oled_ssd130x.h ****         for(size_t i = 0; i < size; i++)
 208:../../libDaisy//src/dev/oled_ssd130x.h ****             SoftSpiTransmit(buff[i]);
 209:../../libDaisy//src/dev/oled_ssd130x.h ****     };
 210:../../libDaisy//src/dev/oled_ssd130x.h **** 
 211:../../libDaisy//src/dev/oled_ssd130x.h ****   private:
 212:../../libDaisy//src/dev/oled_ssd130x.h ****     void SoftSpiTransmit(uint8_t val)
 213:../../libDaisy//src/dev/oled_ssd130x.h ****     {
 214:../../libDaisy//src/dev/oled_ssd130x.h ****         // bit flip
 215:../../libDaisy//src/dev/oled_ssd130x.h ****         val = ((val & 0x01) << 7) | ((val & 0x02) << 5) | ((val & 0x04) << 3)
 216:../../libDaisy//src/dev/oled_ssd130x.h ****               | ((val & 0x08) << 1) | ((val & 0x10) >> 1) | ((val & 0x20) >> 3)
 217:../../libDaisy//src/dev/oled_ssd130x.h ****               | ((val & 0x40) >> 5) | ((val & 0x80) >> 7);
 218:../../libDaisy//src/dev/oled_ssd130x.h **** 
 219:../../libDaisy//src/dev/oled_ssd130x.h ****         for(uint8_t bit = 0u; bit < 8u; bit++)
 220:../../libDaisy//src/dev/oled_ssd130x.h ****         {
 221:../../libDaisy//src/dev/oled_ssd130x.h ****             dsy_gpio_write(&pin_mosi_, ((val & (1 << bit)) ? 1 : 0));
 222:../../libDaisy//src/dev/oled_ssd130x.h **** 
 223:../../libDaisy//src/dev/oled_ssd130x.h ****             System::DelayTicks(clk_delay);
 224:../../libDaisy//src/dev/oled_ssd130x.h **** 
 225:../../libDaisy//src/dev/oled_ssd130x.h ****             dsy_gpio_toggle(&pin_sclk_);
 226:../../libDaisy//src/dev/oled_ssd130x.h **** 
 227:../../libDaisy//src/dev/oled_ssd130x.h ****             System::DelayTicks(clk_delay);
 228:../../libDaisy//src/dev/oled_ssd130x.h **** 
 229:../../libDaisy//src/dev/oled_ssd130x.h ****             dsy_gpio_toggle(&pin_sclk_);
 230:../../libDaisy//src/dev/oled_ssd130x.h ****         }
 231:../../libDaisy//src/dev/oled_ssd130x.h ****     }
 232:../../libDaisy//src/dev/oled_ssd130x.h **** 
 233:../../libDaisy//src/dev/oled_ssd130x.h ****     uint32_t clk_delay;
 234:../../libDaisy//src/dev/oled_ssd130x.h ****     dsy_gpio pin_sclk_;
 235:../../libDaisy//src/dev/oled_ssd130x.h ****     dsy_gpio pin_mosi_;
 236:../../libDaisy//src/dev/oled_ssd130x.h ****     dsy_gpio pin_reset_;
 237:../../libDaisy//src/dev/oled_ssd130x.h ****     dsy_gpio pin_dc_;
 238:../../libDaisy//src/dev/oled_ssd130x.h **** };
 239:../../libDaisy//src/dev/oled_ssd130x.h **** 
 240:../../libDaisy//src/dev/oled_ssd130x.h **** 
 241:../../libDaisy//src/dev/oled_ssd130x.h **** /**
 242:../../libDaisy//src/dev/oled_ssd130x.h ****  * A driver implementation for the SSD1306/SSD1309
 243:../../libDaisy//src/dev/oled_ssd130x.h ****  */
 244:../../libDaisy//src/dev/oled_ssd130x.h **** template <size_t width, size_t height, typename Transport>
 245:../../libDaisy//src/dev/oled_ssd130x.h **** class SSD130xDriver
 246:../../libDaisy//src/dev/oled_ssd130x.h **** {
 247:../../libDaisy//src/dev/oled_ssd130x.h ****   public:
 248:../../libDaisy//src/dev/oled_ssd130x.h ****     struct Config
 249:../../libDaisy//src/dev/oled_ssd130x.h ****     {
 250:../../libDaisy//src/dev/oled_ssd130x.h ****         typename Transport::Config transport_config;
 251:../../libDaisy//src/dev/oled_ssd130x.h ****     };
 252:../../libDaisy//src/dev/oled_ssd130x.h **** 
 253:../../libDaisy//src/dev/oled_ssd130x.h ****     void Init(Config config)
 254:../../libDaisy//src/dev/oled_ssd130x.h ****     {
 255:../../libDaisy//src/dev/oled_ssd130x.h ****         transport_.Init(config.transport_config);
 256:../../libDaisy//src/dev/oled_ssd130x.h **** 
 257:../../libDaisy//src/dev/oled_ssd130x.h ****         // Init routine...
 258:../../libDaisy//src/dev/oled_ssd130x.h **** 
 259:../../libDaisy//src/dev/oled_ssd130x.h ****         // Display Off
 260:../../libDaisy//src/dev/oled_ssd130x.h ****         transport_.SendCommand(0xaE);
 261:../../libDaisy//src/dev/oled_ssd130x.h ****         // Dimension dependent commands...
 262:../../libDaisy//src/dev/oled_ssd130x.h ****         switch(height)
ARM GAS  C:\Users\evang\AppData\Local\Temp\ccUReI4Z.s 			page 17


 263:../../libDaisy//src/dev/oled_ssd130x.h ****         {
 264:../../libDaisy//src/dev/oled_ssd130x.h ****             case 16:
 265:../../libDaisy//src/dev/oled_ssd130x.h ****                 // Display Clock Divide Ratio
 266:../../libDaisy//src/dev/oled_ssd130x.h ****                 transport_.SendCommand(0xD5);
 267:../../libDaisy//src/dev/oled_ssd130x.h ****                 transport_.SendCommand(0x60);
 268:../../libDaisy//src/dev/oled_ssd130x.h ****                 // Multiplex Ratio
 269:../../libDaisy//src/dev/oled_ssd130x.h ****                 transport_.SendCommand(0xA8);
 270:../../libDaisy//src/dev/oled_ssd130x.h ****                 transport_.SendCommand(0x0F);
 271:../../libDaisy//src/dev/oled_ssd130x.h ****                 // COM Pins
 272:../../libDaisy//src/dev/oled_ssd130x.h ****                 transport_.SendCommand(0xDA);
 273:../../libDaisy//src/dev/oled_ssd130x.h ****                 transport_.SendCommand(0x02);
 274:../../libDaisy//src/dev/oled_ssd130x.h ****                 break;
 275:../../libDaisy//src/dev/oled_ssd130x.h ****             case 32:
 276:../../libDaisy//src/dev/oled_ssd130x.h ****                 // Display Clock Divide Ratio
 277:../../libDaisy//src/dev/oled_ssd130x.h ****                 transport_.SendCommand(0xD5);
 278:../../libDaisy//src/dev/oled_ssd130x.h ****                 transport_.SendCommand(0x80);
 279:../../libDaisy//src/dev/oled_ssd130x.h ****                 // Multiplex Ratio
 280:../../libDaisy//src/dev/oled_ssd130x.h ****                 transport_.SendCommand(0xA8);
 281:../../libDaisy//src/dev/oled_ssd130x.h ****                 transport_.SendCommand(0x1F);
 282:../../libDaisy//src/dev/oled_ssd130x.h ****                 // COM Pins
 283:../../libDaisy//src/dev/oled_ssd130x.h ****                 transport_.SendCommand(0xDA);
 284:../../libDaisy//src/dev/oled_ssd130x.h ****                 if(width == 64)
 285:../../libDaisy//src/dev/oled_ssd130x.h ****                 {
 286:../../libDaisy//src/dev/oled_ssd130x.h ****                     transport_.SendCommand(0x12);
 287:../../libDaisy//src/dev/oled_ssd130x.h ****                 }
 288:../../libDaisy//src/dev/oled_ssd130x.h ****                 else
 289:../../libDaisy//src/dev/oled_ssd130x.h ****                 {
 290:../../libDaisy//src/dev/oled_ssd130x.h ****                     transport_.SendCommand(0x02);
 291:../../libDaisy//src/dev/oled_ssd130x.h ****                 }
 292:../../libDaisy//src/dev/oled_ssd130x.h **** 
 293:../../libDaisy//src/dev/oled_ssd130x.h ****                 break;
 294:../../libDaisy//src/dev/oled_ssd130x.h ****             case 48:
 295:../../libDaisy//src/dev/oled_ssd130x.h ****                 // Display Clock Divide Ratio
 296:../../libDaisy//src/dev/oled_ssd130x.h ****                 transport_.SendCommand(0xD5);
 297:../../libDaisy//src/dev/oled_ssd130x.h ****                 transport_.SendCommand(0x80);
 298:../../libDaisy//src/dev/oled_ssd130x.h ****                 // Multiplex Ratio
 299:../../libDaisy//src/dev/oled_ssd130x.h ****                 transport_.SendCommand(0xA8);
 300:../../libDaisy//src/dev/oled_ssd130x.h ****                 transport_.SendCommand(0x2F);
 301:../../libDaisy//src/dev/oled_ssd130x.h ****                 // COM Pins
 302:../../libDaisy//src/dev/oled_ssd130x.h ****                 transport_.SendCommand(0xDA);
 303:../../libDaisy//src/dev/oled_ssd130x.h ****                 transport_.SendCommand(0x12);
 304:../../libDaisy//src/dev/oled_ssd130x.h ****                 break;
 305:../../libDaisy//src/dev/oled_ssd130x.h ****             default: // 128
 306:../../libDaisy//src/dev/oled_ssd130x.h ****                 // Display Clock Divide Ratio
 307:../../libDaisy//src/dev/oled_ssd130x.h ****                 transport_.SendCommand(0xD5);
 308:../../libDaisy//src/dev/oled_ssd130x.h ****                 transport_.SendCommand(0x80);
 309:../../libDaisy//src/dev/oled_ssd130x.h ****                 // Multiplex Ratio
 310:../../libDaisy//src/dev/oled_ssd130x.h ****                 transport_.SendCommand(0xA8);
 311:../../libDaisy//src/dev/oled_ssd130x.h ****                 transport_.SendCommand(0x3F);
 312:../../libDaisy//src/dev/oled_ssd130x.h ****                 // COM Pins
 313:../../libDaisy//src/dev/oled_ssd130x.h ****                 transport_.SendCommand(0xDA);
 314:../../libDaisy//src/dev/oled_ssd130x.h ****                 transport_.SendCommand(0x12);
 315:../../libDaisy//src/dev/oled_ssd130x.h ****                 break;
 316:../../libDaisy//src/dev/oled_ssd130x.h ****         }
 317:../../libDaisy//src/dev/oled_ssd130x.h **** 
 318:../../libDaisy//src/dev/oled_ssd130x.h ****         // Display Offset
 319:../../libDaisy//src/dev/oled_ssd130x.h ****         transport_.SendCommand(0xD3);
ARM GAS  C:\Users\evang\AppData\Local\Temp\ccUReI4Z.s 			page 18


 320:../../libDaisy//src/dev/oled_ssd130x.h ****         transport_.SendCommand(0x00);
 321:../../libDaisy//src/dev/oled_ssd130x.h ****         // Start Line Address
 322:../../libDaisy//src/dev/oled_ssd130x.h ****         transport_.SendCommand(0x40);
 323:../../libDaisy//src/dev/oled_ssd130x.h ****         // Normal Display
 324:../../libDaisy//src/dev/oled_ssd130x.h ****         transport_.SendCommand(0xA6);
 325:../../libDaisy//src/dev/oled_ssd130x.h ****         // All On Resume
 326:../../libDaisy//src/dev/oled_ssd130x.h ****         transport_.SendCommand(0xA4);
 327:../../libDaisy//src/dev/oled_ssd130x.h ****         // Charge Pump
 328:../../libDaisy//src/dev/oled_ssd130x.h ****         transport_.SendCommand(0x8D);
 329:../../libDaisy//src/dev/oled_ssd130x.h ****         transport_.SendCommand(0x14);
 330:../../libDaisy//src/dev/oled_ssd130x.h ****         // Set Segment Remap
 331:../../libDaisy//src/dev/oled_ssd130x.h ****         transport_.SendCommand(0xA1);
 332:../../libDaisy//src/dev/oled_ssd130x.h ****         // COM Output Scan Direction
 333:../../libDaisy//src/dev/oled_ssd130x.h ****         transport_.SendCommand(0xC8);
 334:../../libDaisy//src/dev/oled_ssd130x.h ****         // Contrast Control
 335:../../libDaisy//src/dev/oled_ssd130x.h ****         transport_.SendCommand(0x81);
 336:../../libDaisy//src/dev/oled_ssd130x.h ****         transport_.SendCommand(0x8F);
 337:../../libDaisy//src/dev/oled_ssd130x.h ****         // Pre Charge
 338:../../libDaisy//src/dev/oled_ssd130x.h ****         transport_.SendCommand(0xD9);
 339:../../libDaisy//src/dev/oled_ssd130x.h ****         transport_.SendCommand(0x25);
 340:../../libDaisy//src/dev/oled_ssd130x.h ****         // VCOM Detect
 341:../../libDaisy//src/dev/oled_ssd130x.h ****         transport_.SendCommand(0xDB);
 342:../../libDaisy//src/dev/oled_ssd130x.h ****         transport_.SendCommand(0x34);
 343:../../libDaisy//src/dev/oled_ssd130x.h **** 
 344:../../libDaisy//src/dev/oled_ssd130x.h **** 
 345:../../libDaisy//src/dev/oled_ssd130x.h ****         // Display On
 346:../../libDaisy//src/dev/oled_ssd130x.h ****         transport_.SendCommand(0xAF); //--turn on oled panel
 347:../../libDaisy//src/dev/oled_ssd130x.h ****     };
 348:../../libDaisy//src/dev/oled_ssd130x.h **** 
 349:../../libDaisy//src/dev/oled_ssd130x.h ****     size_t Width() const { return width; };
 350:../../libDaisy//src/dev/oled_ssd130x.h ****     size_t Height() const { return height; };
 351:../../libDaisy//src/dev/oled_ssd130x.h **** 
 352:../../libDaisy//src/dev/oled_ssd130x.h ****     void DrawPixel(uint_fast8_t x, uint_fast8_t y, bool on)
 353:../../libDaisy//src/dev/oled_ssd130x.h ****     {
 354:../../libDaisy//src/dev/oled_ssd130x.h ****         if(x >= width || y >= height)
 355:../../libDaisy//src/dev/oled_ssd130x.h ****             return;
 356:../../libDaisy//src/dev/oled_ssd130x.h ****         if(on)
 357:../../libDaisy//src/dev/oled_ssd130x.h ****             buffer_[x + (y / 8) * width] |= (1 << (y % 8));
 358:../../libDaisy//src/dev/oled_ssd130x.h ****         else
 359:../../libDaisy//src/dev/oled_ssd130x.h ****             buffer_[x + (y / 8) * width] &= ~(1 << (y % 8));
 360:../../libDaisy//src/dev/oled_ssd130x.h ****     }
 361:../../libDaisy//src/dev/oled_ssd130x.h **** 
 362:../../libDaisy//src/dev/oled_ssd130x.h ****     void Fill(bool on)
 162              		.loc 10 362 10 view .LVU17
 163              	.LBB615:
 363:../../libDaisy//src/dev/oled_ssd130x.h ****     {
 364:../../libDaisy//src/dev/oled_ssd130x.h ****         for(size_t i = 0; i < sizeof(buffer_); i++)
 164              		.loc 10 364 29 view .LVU18
 365:../../libDaisy//src/dev/oled_ssd130x.h ****         {
 366:../../libDaisy//src/dev/oled_ssd130x.h ****             buffer_[i] = on ? 0xff : 0x00;
 165              		.loc 10 366 24 is_stmt 0 view .LVU19
 166 0000 4942     		rsbs	r1, r1, #0
 167              	.LVL5:
 168              		.loc 10 366 24 view .LVU20
 169 0002 4FF48062 		mov	r2, #1024
 170 0006 1030     		adds	r0, r0, #16
 171              	.LVL6:
ARM GAS  C:\Users\evang\AppData\Local\Temp\ccUReI4Z.s 			page 19


 172              		.loc 10 366 24 view .LVU21
 173 0008 C9B2     		uxtb	r1, r1
 174 000a FFF7FEBF 		b	memset
 175              	.LVL7:
 176              		.loc 10 366 24 view .LVU22
 177              	.LBE615:
 178              	.LBE614:
 179              		.cfi_endproc
 180              	.LFE5041:
 182 000e 00BF     		.section	.text._ZN5daisy11OledDisplayINS_13SSD130xDriverILj128ELj64ENS_19SSD130xI2CTransportEEEED2
 183              		.align	1
 184              		.p2align 2,,3
 185              		.weak	_ZN5daisy11OledDisplayINS_13SSD130xDriverILj128ELj64ENS_19SSD130xI2CTransportEEEED2Ev
 186              		.syntax unified
 187              		.thumb
 188              		.thumb_func
 189              		.fpu fpv5-d16
 191              	_ZN5daisy11OledDisplayINS_13SSD130xDriverILj128ELj64ENS_19SSD130xI2CTransportEEEED2Ev:
 192              	.LVL8:
 193              	.LFB5337:
  18:../../libDaisy//src/hid/disp/oled_display.h **** 
 194              		.loc 9 18 13 is_stmt 1 view -0
 195              		.cfi_startproc
 196              		@ args = 0, pretend = 0, frame = 0
 197              		@ frame_needed = 0, uses_anonymous_args = 0
 198              		@ link register save eliminated.
 199              	.LBB616:
 200              	.LBI616:
 201              		.file 11 "../../libDaisy//src/hid/disp/display.h"
   1:../../libDaisy//src/hid/disp/display.h **** #pragma once
   2:../../libDaisy//src/hid/disp/display.h **** #ifndef DSY_DISPLAY_H
   3:../../libDaisy//src/hid/disp/display.h **** #define DSY_DISPLAY_H /**< Macro */
   4:../../libDaisy//src/hid/disp/display.h **** #include <cmath>
   5:../../libDaisy//src/hid/disp/display.h **** #include "util/oled_fonts.h"
   6:../../libDaisy//src/hid/disp/display.h **** #include "daisy_core.h"
   7:../../libDaisy//src/hid/disp/display.h **** #include "graphics_common.h"
   8:../../libDaisy//src/hid/disp/display.h **** 
   9:../../libDaisy//src/hid/disp/display.h **** #ifndef deg2rad
  10:../../libDaisy//src/hid/disp/display.h **** #define deg2rad(deg) ((deg)*3.141592 / 180.0)
  11:../../libDaisy//src/hid/disp/display.h **** #endif
  12:../../libDaisy//src/hid/disp/display.h **** 
  13:../../libDaisy//src/hid/disp/display.h **** namespace daisy
  14:../../libDaisy//src/hid/disp/display.h **** {
  15:../../libDaisy//src/hid/disp/display.h **** /** 
  16:../../libDaisy//src/hid/disp/display.h ****  * This interface is used as a base class for all types of 1bit-per-pixel
  17:../../libDaisy//src/hid/disp/display.h ****  * graphics displays.
  18:../../libDaisy//src/hid/disp/display.h **** */
  19:../../libDaisy//src/hid/disp/display.h **** class OneBitGraphicsDisplay
  20:../../libDaisy//src/hid/disp/display.h **** {
  21:../../libDaisy//src/hid/disp/display.h ****   public:
  22:../../libDaisy//src/hid/disp/display.h ****     OneBitGraphicsDisplay() {}
  23:../../libDaisy//src/hid/disp/display.h ****     virtual ~OneBitGraphicsDisplay() {}
  24:../../libDaisy//src/hid/disp/display.h **** 
  25:../../libDaisy//src/hid/disp/display.h ****     virtual uint16_t Height() const = 0;
  26:../../libDaisy//src/hid/disp/display.h ****     virtual uint16_t Width() const  = 0;
  27:../../libDaisy//src/hid/disp/display.h **** 
  28:../../libDaisy//src/hid/disp/display.h ****     Rectangle GetBounds() const
ARM GAS  C:\Users\evang\AppData\Local\Temp\ccUReI4Z.s 			page 20


  29:../../libDaisy//src/hid/disp/display.h ****     {
  30:../../libDaisy//src/hid/disp/display.h ****         return Rectangle(int16_t(Width()), int16_t(Height()));
  31:../../libDaisy//src/hid/disp/display.h ****     }
  32:../../libDaisy//src/hid/disp/display.h **** 
  33:../../libDaisy//src/hid/disp/display.h **** 
  34:../../libDaisy//src/hid/disp/display.h ****     size_t CurrentX() { return currentX_; };
  35:../../libDaisy//src/hid/disp/display.h ****     size_t CurrentY() { return currentY_; };
  36:../../libDaisy//src/hid/disp/display.h **** 
  37:../../libDaisy//src/hid/disp/display.h ****     /** 
  38:../../libDaisy//src/hid/disp/display.h ****     Fills the entire display with either on/off.
  39:../../libDaisy//src/hid/disp/display.h ****     \param on Sets on or off.
  40:../../libDaisy//src/hid/disp/display.h ****     */
  41:../../libDaisy//src/hid/disp/display.h ****     virtual void Fill(bool on) = 0;
  42:../../libDaisy//src/hid/disp/display.h **** 
  43:../../libDaisy//src/hid/disp/display.h ****     /**
  44:../../libDaisy//src/hid/disp/display.h ****     Sets the pixel at the specified coordinate to be on/off.
  45:../../libDaisy//src/hid/disp/display.h ****     \param x   x Coordinate
  46:../../libDaisy//src/hid/disp/display.h ****     \param y   y coordinate
  47:../../libDaisy//src/hid/disp/display.h ****     \param on  on or off
  48:../../libDaisy//src/hid/disp/display.h ****     */
  49:../../libDaisy//src/hid/disp/display.h ****     virtual void DrawPixel(uint_fast8_t x, uint_fast8_t y, bool on) = 0;
  50:../../libDaisy//src/hid/disp/display.h **** 
  51:../../libDaisy//src/hid/disp/display.h ****     /**
  52:../../libDaisy//src/hid/disp/display.h ****     Draws a line from (x1, y1) to (y1, y2)
  53:../../libDaisy//src/hid/disp/display.h ****     \param x1  x Coordinate of the starting point
  54:../../libDaisy//src/hid/disp/display.h ****     \param y1  y Coordinate of the starting point
  55:../../libDaisy//src/hid/disp/display.h ****     \param x2  x Coordinate of the ending point
  56:../../libDaisy//src/hid/disp/display.h ****     \param y2  y Coordinate of the ending point
  57:../../libDaisy//src/hid/disp/display.h ****     \param on  on or off
  58:../../libDaisy//src/hid/disp/display.h ****     */
  59:../../libDaisy//src/hid/disp/display.h ****     virtual void DrawLine(uint_fast8_t x1,
  60:../../libDaisy//src/hid/disp/display.h ****                           uint_fast8_t y1,
  61:../../libDaisy//src/hid/disp/display.h ****                           uint_fast8_t x2,
  62:../../libDaisy//src/hid/disp/display.h ****                           uint_fast8_t y2,
  63:../../libDaisy//src/hid/disp/display.h ****                           bool         on)
  64:../../libDaisy//src/hid/disp/display.h ****         = 0;
  65:../../libDaisy//src/hid/disp/display.h **** 
  66:../../libDaisy//src/hid/disp/display.h ****     /**
  67:../../libDaisy//src/hid/disp/display.h ****     Draws a rectangle based on two coordinates.
  68:../../libDaisy//src/hid/disp/display.h ****     \param x1 x Coordinate of the first point
  69:../../libDaisy//src/hid/disp/display.h ****     \param y1 y Coordinate of the first point
  70:../../libDaisy//src/hid/disp/display.h ****     \param x2 x Coordinate of the second point
  71:../../libDaisy//src/hid/disp/display.h ****     \param y2 y Coordinate of the second point
  72:../../libDaisy//src/hid/disp/display.h ****     \param on on or off
  73:../../libDaisy//src/hid/disp/display.h ****     \param fill fill the rectangle or draw only the outline
  74:../../libDaisy//src/hid/disp/display.h ****     */
  75:../../libDaisy//src/hid/disp/display.h ****     virtual void DrawRect(uint_fast8_t x1,
  76:../../libDaisy//src/hid/disp/display.h ****                           uint_fast8_t y1,
  77:../../libDaisy//src/hid/disp/display.h ****                           uint_fast8_t x2,
  78:../../libDaisy//src/hid/disp/display.h ****                           uint_fast8_t y2,
  79:../../libDaisy//src/hid/disp/display.h ****                           bool         on,
  80:../../libDaisy//src/hid/disp/display.h ****                           bool         fill = false)
  81:../../libDaisy//src/hid/disp/display.h ****         = 0;
  82:../../libDaisy//src/hid/disp/display.h **** 
  83:../../libDaisy//src/hid/disp/display.h ****     /**
  84:../../libDaisy//src/hid/disp/display.h ****     Draws a rectangle.
  85:../../libDaisy//src/hid/disp/display.h ****     \param rect the rectangle
ARM GAS  C:\Users\evang\AppData\Local\Temp\ccUReI4Z.s 			page 21


  86:../../libDaisy//src/hid/disp/display.h ****     \param on   on or off
  87:../../libDaisy//src/hid/disp/display.h ****     \param fill fill the rectangle or draw only the outline
  88:../../libDaisy//src/hid/disp/display.h ****     */
  89:../../libDaisy//src/hid/disp/display.h ****     void DrawRect(const Rectangle& rect, bool on, bool fill = false)
  90:../../libDaisy//src/hid/disp/display.h ****     {
  91:../../libDaisy//src/hid/disp/display.h ****         DrawRect(rect.GetX(),
  92:../../libDaisy//src/hid/disp/display.h ****                  rect.GetY(),
  93:../../libDaisy//src/hid/disp/display.h ****                  rect.GetRight(),
  94:../../libDaisy//src/hid/disp/display.h ****                  rect.GetBottom(),
  95:../../libDaisy//src/hid/disp/display.h ****                  on,
  96:../../libDaisy//src/hid/disp/display.h ****                  fill);
  97:../../libDaisy//src/hid/disp/display.h ****     }
  98:../../libDaisy//src/hid/disp/display.h **** 
  99:../../libDaisy//src/hid/disp/display.h ****     /**
 100:../../libDaisy//src/hid/disp/display.h ****     Draws an arc around the specified coordinate
 101:../../libDaisy//src/hid/disp/display.h ****     \param x           x Coordinate of the center of the arc
 102:../../libDaisy//src/hid/disp/display.h ****     \param y           y Coordinate of the center of the arc
 103:../../libDaisy//src/hid/disp/display.h ****     \param radius      radius of the arc
 104:../../libDaisy//src/hid/disp/display.h ****     \param start_angle angle where to start the arc
 105:../../libDaisy//src/hid/disp/display.h ****     \param sweep       total angle of the arc
 106:../../libDaisy//src/hid/disp/display.h ****     \param on  on or off
 107:../../libDaisy//src/hid/disp/display.h ****     */
 108:../../libDaisy//src/hid/disp/display.h ****     virtual void DrawArc(uint_fast8_t x,
 109:../../libDaisy//src/hid/disp/display.h ****                          uint_fast8_t y,
 110:../../libDaisy//src/hid/disp/display.h ****                          uint_fast8_t radius,
 111:../../libDaisy//src/hid/disp/display.h ****                          int_fast16_t start_angle,
 112:../../libDaisy//src/hid/disp/display.h ****                          int_fast16_t sweep,
 113:../../libDaisy//src/hid/disp/display.h ****                          bool         on)
 114:../../libDaisy//src/hid/disp/display.h ****         = 0;
 115:../../libDaisy//src/hid/disp/display.h **** 
 116:../../libDaisy//src/hid/disp/display.h ****     /**
 117:../../libDaisy//src/hid/disp/display.h ****     Draws a circle around the specified coordinate
 118:../../libDaisy//src/hid/disp/display.h ****     \param x           x Coordinate of the center of the circle
 119:../../libDaisy//src/hid/disp/display.h ****     \param y           y Coordinate of the center of the circle
 120:../../libDaisy//src/hid/disp/display.h ****     \param radius      radius of the circle
 121:../../libDaisy//src/hid/disp/display.h ****     \param on  on or off
 122:../../libDaisy//src/hid/disp/display.h ****     */
 123:../../libDaisy//src/hid/disp/display.h ****     void
 124:../../libDaisy//src/hid/disp/display.h ****     DrawCircle(uint_fast8_t x, uint_fast8_t y, uint_fast8_t radius, bool on)
 125:../../libDaisy//src/hid/disp/display.h ****     {
 126:../../libDaisy//src/hid/disp/display.h ****         DrawArc(x, y, radius, 0, 360, on);
 127:../../libDaisy//src/hid/disp/display.h ****     };
 128:../../libDaisy//src/hid/disp/display.h **** 
 129:../../libDaisy//src/hid/disp/display.h ****     /** 
 130:../../libDaisy//src/hid/disp/display.h ****     Writes the character with the specific FontDef
 131:../../libDaisy//src/hid/disp/display.h ****     to the display buffer at the current Cursor position.
 132:../../libDaisy//src/hid/disp/display.h ****     \param ch character to be written
 133:../../libDaisy//src/hid/disp/display.h ****     \param font font to be written in
 134:../../libDaisy//src/hid/disp/display.h ****     \param on    on or off
 135:../../libDaisy//src/hid/disp/display.h ****     \return &
 136:../../libDaisy//src/hid/disp/display.h ****     */
 137:../../libDaisy//src/hid/disp/display.h ****     virtual char WriteChar(char ch, FontDef font, bool on) = 0;
 138:../../libDaisy//src/hid/disp/display.h **** 
 139:../../libDaisy//src/hid/disp/display.h ****     /** 
 140:../../libDaisy//src/hid/disp/display.h ****     Similar to WriteChar, except it will handle an entire String.
 141:../../libDaisy//src/hid/disp/display.h ****     Wrapping does not happen automatically, so the width
 142:../../libDaisy//src/hid/disp/display.h ****     of the string must be kept within the dimensions of the screen.
ARM GAS  C:\Users\evang\AppData\Local\Temp\ccUReI4Z.s 			page 22


 143:../../libDaisy//src/hid/disp/display.h ****     \param str string to be written
 144:../../libDaisy//src/hid/disp/display.h ****     \param font font to use
 145:../../libDaisy//src/hid/disp/display.h ****     \param on  on or off
 146:../../libDaisy//src/hid/disp/display.h ****     \return &
 147:../../libDaisy//src/hid/disp/display.h ****     */
 148:../../libDaisy//src/hid/disp/display.h ****     virtual char WriteString(const char* str, FontDef font, bool on) = 0;
 149:../../libDaisy//src/hid/disp/display.h **** 
 150:../../libDaisy//src/hid/disp/display.h ****     /** 
 151:../../libDaisy//src/hid/disp/display.h ****     Similar to WriteString but justified within a bounding box.
 152:../../libDaisy//src/hid/disp/display.h ****     \param str          string to be written
 153:../../libDaisy//src/hid/disp/display.h ****     \param font         font to use
 154:../../libDaisy//src/hid/disp/display.h ****     \param boundingBox  the bounding box to draw the text in
 155:../../libDaisy//src/hid/disp/display.h ****     \param alignment    the alignment to use
 156:../../libDaisy//src/hid/disp/display.h ****     \param on           on or off
 157:../../libDaisy//src/hid/disp/display.h ****     \return The rectangle that was drawn to
 158:../../libDaisy//src/hid/disp/display.h ****     */
 159:../../libDaisy//src/hid/disp/display.h ****     virtual Rectangle WriteStringAligned(const char*    str,
 160:../../libDaisy//src/hid/disp/display.h ****                                          const FontDef& font,
 161:../../libDaisy//src/hid/disp/display.h ****                                          Rectangle      boundingBox,
 162:../../libDaisy//src/hid/disp/display.h ****                                          Alignment      alignment,
 163:../../libDaisy//src/hid/disp/display.h ****                                          bool           on)
 164:../../libDaisy//src/hid/disp/display.h ****         = 0;
 165:../../libDaisy//src/hid/disp/display.h **** 
 166:../../libDaisy//src/hid/disp/display.h ****     /** 
 167:../../libDaisy//src/hid/disp/display.h ****     Moves the 'Cursor' position used for WriteChar, and WriteStr to the specified coordinate.
 168:../../libDaisy//src/hid/disp/display.h ****     \param x x pos
 169:../../libDaisy//src/hid/disp/display.h ****     \param y y pos
 170:../../libDaisy//src/hid/disp/display.h ****     */
 171:../../libDaisy//src/hid/disp/display.h ****     void SetCursor(uint16_t x, uint16_t y)
 172:../../libDaisy//src/hid/disp/display.h ****     {
 173:../../libDaisy//src/hid/disp/display.h ****         currentX_ = (x >= Width()) ? Width() - 1 : x;
 174:../../libDaisy//src/hid/disp/display.h ****         currentY_ = (y >= Height()) ? Height() - 1 : y;
 175:../../libDaisy//src/hid/disp/display.h ****     }
 176:../../libDaisy//src/hid/disp/display.h **** 
 177:../../libDaisy//src/hid/disp/display.h ****     /** 
 178:../../libDaisy//src/hid/disp/display.h ****     Writes the current display buffer to the OLED device using SPI or I2C depending on 
 179:../../libDaisy//src/hid/disp/display.h ****     how the object was initialized.
 180:../../libDaisy//src/hid/disp/display.h ****     */
 181:../../libDaisy//src/hid/disp/display.h ****     virtual void Update() = 0;
 182:../../libDaisy//src/hid/disp/display.h **** 
 183:../../libDaisy//src/hid/disp/display.h ****   protected:
 184:../../libDaisy//src/hid/disp/display.h ****     uint16_t currentX_;
 185:../../libDaisy//src/hid/disp/display.h ****     uint16_t currentY_;
 186:../../libDaisy//src/hid/disp/display.h **** };
 187:../../libDaisy//src/hid/disp/display.h **** 
 188:../../libDaisy//src/hid/disp/display.h **** /** This class is intended as a intermediary class for your actual implementation of the OneBitGrap
 189:../../libDaisy//src/hid/disp/display.h ****  *  interface. It uses the CRTP design pattern where the template argument is the child class. It p
 190:../../libDaisy//src/hid/disp/display.h ****  *  implementations for most of the functions, except DrawPixel(), Update() and Fill(), which you'l
 191:../../libDaisy//src/hid/disp/display.h ****  *  to provide in your child class.
 192:../../libDaisy//src/hid/disp/display.h ****  *  The main goal of this class is to provide common drawing functions without relying on massive a
 193:../../libDaisy//src/hid/disp/display.h ****  *  virtual function calls that would result in a performance loss. To achieve this, any drawing fu
 194:../../libDaisy//src/hid/disp/display.h ****  *  is implemented here and internally calls other drawing functions (e.g. DrawRect() which interna
 195:../../libDaisy//src/hid/disp/display.h ****  *  DrawPixel() and DrawLine()) makes these calls via the qualified name of these functions to expl
 196:../../libDaisy//src/hid/disp/display.h ****  *  suppress the virtual dispatch mechanism like this:
 197:../../libDaisy//src/hid/disp/display.h ****  * 
 198:../../libDaisy//src/hid/disp/display.h ****  *      ChildType::DrawPixel(...); // no virtual function call; direct call into the child class fu
 199:../../libDaisy//src/hid/disp/display.h ****  *  
ARM GAS  C:\Users\evang\AppData\Local\Temp\ccUReI4Z.s 			page 23


 200:../../libDaisy//src/hid/disp/display.h ****  *  To create a custom OneBitGraphicsDisplay implementation, you can 
 201:../../libDaisy//src/hid/disp/display.h ****  *  A) inherit from OneBitGraphicsDisplay directly and provide all the drawing functions yourself
 202:../../libDaisy//src/hid/disp/display.h ****  *  B) Inherit from OneBitGraphicsDisplayImpl and only provide DrawPixel(), Fill() and Update()
 203:../../libDaisy//src/hid/disp/display.h ****  *     like this:
 204:../../libDaisy//src/hid/disp/display.h ****  *  
 205:../../libDaisy//src/hid/disp/display.h ****  *      class MyDisplayClass : public OneBitGraphicsDisplayImpl<MyDisplayClass> 
 206:../../libDaisy//src/hid/disp/display.h ****  *      {
 207:../../libDaisy//src/hid/disp/display.h ****  *      public:
 208:../../libDaisy//src/hid/disp/display.h ****  *          void Fill() override { ... };
 209:../../libDaisy//src/hid/disp/display.h ****  *          void DrawPixel(uint_fast8_t x, uint_fast8_t y, bool on) override { ... };
 210:../../libDaisy//src/hid/disp/display.h ****  *          void Update() override { ... }
 211:../../libDaisy//src/hid/disp/display.h ****  *      };
 212:../../libDaisy//src/hid/disp/display.h ****  *  
 213:../../libDaisy//src/hid/disp/display.h ****  */
 214:../../libDaisy//src/hid/disp/display.h **** template <class ChildType>
 215:../../libDaisy//src/hid/disp/display.h **** class OneBitGraphicsDisplayImpl : public OneBitGraphicsDisplay
 216:../../libDaisy//src/hid/disp/display.h **** {
 217:../../libDaisy//src/hid/disp/display.h ****   public:
 218:../../libDaisy//src/hid/disp/display.h ****     OneBitGraphicsDisplayImpl() {}
 219:../../libDaisy//src/hid/disp/display.h ****     virtual ~OneBitGraphicsDisplayImpl() {}
 202              		.loc 11 219 13 view .LVU24
 203              	.LBB617:
 204              	.LBI617:
  23:../../libDaisy//src/hid/disp/display.h **** 
 205              		.loc 11 23 13 view .LVU25
  23:../../libDaisy//src/hid/disp/display.h **** 
 206              		.loc 11 23 13 is_stmt 0 view .LVU26
 207              	.LBE617:
 208              	.LBE616:
  18:../../libDaisy//src/hid/disp/oled_display.h **** 
 209              		.loc 9 18 29 view .LVU27
 210 0000 7047     		bx	lr
 211              		.cfi_endproc
 212              	.LFE5337:
 214              		.weak	_ZN5daisy11OledDisplayINS_13SSD130xDriverILj128ELj64ENS_19SSD130xI2CTransportEEEED1Ev
 215              		.thumb_set _ZN5daisy11OledDisplayINS_13SSD130xDriverILj128ELj64ENS_19SSD130xI2CTransportEEEED1Ev,_
 216 0002 00BF     		.section	.text._ZNK5daisy11OledDisplayINS_13SSD130xDriverILj128ELj64ENS_19SSD130xI2CTransportEEEE6
 217              		.align	1
 218              		.p2align 2,,3
 219              		.weak	_ZNK5daisy11OledDisplayINS_13SSD130xDriverILj128ELj64ENS_19SSD130xI2CTransportEEEE6HeightEv
 220              		.syntax unified
 221              		.thumb
 222              		.thumb_func
 223              		.fpu fpv5-d16
 225              	_ZNK5daisy11OledDisplayINS_13SSD130xDriverILj128ELj64ENS_19SSD130xI2CTransportEEEE6HeightEv:
 226              	.LVL9:
 227              	.LFB5340:
  27:../../libDaisy//src/hid/disp/oled_display.h ****     uint16_t Width() const override { return driver_.Width(); }
 228              		.loc 9 27 14 is_stmt 1 view -0
 229              		.cfi_startproc
 230              		@ args = 0, pretend = 0, frame = 0
 231              		@ frame_needed = 0, uses_anonymous_args = 0
 232              		@ link register save eliminated.
  27:../../libDaisy//src/hid/disp/oled_display.h ****     uint16_t Width() const override { return driver_.Width(); }
 233              		.loc 9 27 65 is_stmt 0 view .LVU29
 234 0000 4020     		movs	r0, #64
 235              	.LVL10:
ARM GAS  C:\Users\evang\AppData\Local\Temp\ccUReI4Z.s 			page 24


  27:../../libDaisy//src/hid/disp/oled_display.h ****     uint16_t Width() const override { return driver_.Width(); }
 236              		.loc 9 27 65 view .LVU30
 237 0002 7047     		bx	lr
 238              		.cfi_endproc
 239              	.LFE5340:
 241              		.section	.text._ZNK5daisy11OledDisplayINS_13SSD130xDriverILj128ELj64ENS_19SSD130xI2CTransportEEEE5
 242              		.align	1
 243              		.p2align 2,,3
 244              		.weak	_ZNK5daisy11OledDisplayINS_13SSD130xDriverILj128ELj64ENS_19SSD130xI2CTransportEEEE5WidthEv
 245              		.syntax unified
 246              		.thumb
 247              		.thumb_func
 248              		.fpu fpv5-d16
 250              	_ZNK5daisy11OledDisplayINS_13SSD130xDriverILj128ELj64ENS_19SSD130xI2CTransportEEEE5WidthEv:
 251              	.LVL11:
 252              	.LFB5341:
  28:../../libDaisy//src/hid/disp/oled_display.h **** 
 253              		.loc 9 28 14 is_stmt 1 view -0
 254              		.cfi_startproc
 255              		@ args = 0, pretend = 0, frame = 0
 256              		@ frame_needed = 0, uses_anonymous_args = 0
 257              		@ link register save eliminated.
  28:../../libDaisy//src/hid/disp/oled_display.h **** 
 258              		.loc 9 28 63 is_stmt 0 view .LVU32
 259 0000 8020     		movs	r0, #128
 260              	.LVL12:
  28:../../libDaisy//src/hid/disp/oled_display.h **** 
 261              		.loc 9 28 63 view .LVU33
 262 0002 7047     		bx	lr
 263              		.cfi_endproc
 264              	.LFE5341:
 266              		.section	.text._ZN5daisy11MidiHandlerINS_16MidiUsbTransportEED2Ev,"axG",%progbits,_ZN5daisy11MidiH
 267              		.align	1
 268              		.p2align 2,,3
 269              		.weak	_ZN5daisy11MidiHandlerINS_16MidiUsbTransportEED2Ev
 270              		.syntax unified
 271              		.thumb
 272              		.thumb_func
 273              		.fpu fpv5-d16
 275              	_ZN5daisy11MidiHandlerINS_16MidiUsbTransportEED2Ev:
 276              	.LVL13:
 277              	.LFB5347:
 278              		.file 12 "../../libDaisy//src/hid/midi.h"
   1:../../libDaisy//src/hid/midi.h **** #pragma once
   2:../../libDaisy//src/hid/midi.h **** #ifndef DSY_MIDI_H
   3:../../libDaisy//src/hid/midi.h **** #define DSY_MIDI_H
   4:../../libDaisy//src/hid/midi.h **** 
   5:../../libDaisy//src/hid/midi.h **** #include <stdint.h>
   6:../../libDaisy//src/hid/midi.h **** #include <stdlib.h>
   7:../../libDaisy//src/hid/midi.h **** #include <algorithm>
   8:../../libDaisy//src/hid/midi.h **** #include "per/uart.h"
   9:../../libDaisy//src/hid/midi.h **** #include "util/ringbuffer.h"
  10:../../libDaisy//src/hid/midi.h **** #include "util/FIFO.h"
  11:../../libDaisy//src/hid/midi.h **** #include "hid/midi_parser.h"
  12:../../libDaisy//src/hid/midi.h **** #include "hid/usb_midi.h"
  13:../../libDaisy//src/hid/midi.h **** #include "sys/dma.h"
  14:../../libDaisy//src/hid/midi.h **** #include "sys/system.h"
ARM GAS  C:\Users\evang\AppData\Local\Temp\ccUReI4Z.s 			page 25


  15:../../libDaisy//src/hid/midi.h **** 
  16:../../libDaisy//src/hid/midi.h **** namespace daisy
  17:../../libDaisy//src/hid/midi.h **** {
  18:../../libDaisy//src/hid/midi.h **** /** @brief   Transport layer for sending and receiving MIDI data over UART
  19:../../libDaisy//src/hid/midi.h ****  *  @details This is the mode of communication used for TRS and DIN MIDI
  20:../../libDaisy//src/hid/midi.h ****  *           There is an additional 2kB of RAM data used within this class
  21:../../libDaisy//src/hid/midi.h ****  *           for processing bulk data from the UART peripheral
  22:../../libDaisy//src/hid/midi.h ****  *  @ingroup midi
  23:../../libDaisy//src/hid/midi.h **** */
  24:../../libDaisy//src/hid/midi.h **** class MidiUartTransport
  25:../../libDaisy//src/hid/midi.h **** {
  26:../../libDaisy//src/hid/midi.h ****   public:
  27:../../libDaisy//src/hid/midi.h ****     typedef void (*MidiRxParseCallback)(uint8_t* data,
  28:../../libDaisy//src/hid/midi.h ****                                         size_t   size,
  29:../../libDaisy//src/hid/midi.h ****                                         void*    context);
  30:../../libDaisy//src/hid/midi.h **** 
  31:../../libDaisy//src/hid/midi.h ****     MidiUartTransport() {}
  32:../../libDaisy//src/hid/midi.h ****     ~MidiUartTransport() {}
  33:../../libDaisy//src/hid/midi.h **** 
  34:../../libDaisy//src/hid/midi.h ****     /** @brief Configuration structure for UART MIDI */
  35:../../libDaisy//src/hid/midi.h ****     struct Config
  36:../../libDaisy//src/hid/midi.h ****     {
  37:../../libDaisy//src/hid/midi.h ****         UartHandler::Config::Peripheral periph;
  38:../../libDaisy//src/hid/midi.h ****         dsy_gpio_pin                    rx;
  39:../../libDaisy//src/hid/midi.h ****         dsy_gpio_pin                    tx;
  40:../../libDaisy//src/hid/midi.h **** 
  41:../../libDaisy//src/hid/midi.h ****         /** Pointer to buffer for DMA UART rx byte transfer in background.
  42:../../libDaisy//src/hid/midi.h ****          *
  43:../../libDaisy//src/hid/midi.h ****          *  @details By default this uses a shared buffer in DMA_BUFFER_MEM_SECTION,
  44:../../libDaisy//src/hid/midi.h ****          *           which can only be utilized for a single UART peripheral. To
  45:../../libDaisy//src/hid/midi.h ****          *           use MIDI with multiple UART peripherals, you must provide your own
  46:../../libDaisy//src/hid/midi.h ****          *           buffer, allocated to a DMA-capable memory section.
  47:../../libDaisy//src/hid/midi.h ****          */
  48:../../libDaisy//src/hid/midi.h ****         uint8_t* rx_buffer;
  49:../../libDaisy//src/hid/midi.h **** 
  50:../../libDaisy//src/hid/midi.h ****         /** Size in bytes of rx_buffer.
  51:../../libDaisy//src/hid/midi.h ****          *
  52:../../libDaisy//src/hid/midi.h ****          *  @details This size determines the maximum Rx bytes readable by the UART in the backgrou
  53:../../libDaisy//src/hid/midi.h ****          *           By default it's set to the size of the default shared rx_buffer (256 bytes).
  54:../../libDaisy//src/hid/midi.h ****          *           While much smaller sizes can be used, data can get missed if the buffer is too
  55:../../libDaisy//src/hid/midi.h ****          */
  56:../../libDaisy//src/hid/midi.h ****         size_t rx_buffer_size;
  57:../../libDaisy//src/hid/midi.h **** 
  58:../../libDaisy//src/hid/midi.h ****         Config();
  59:../../libDaisy//src/hid/midi.h ****     };
  60:../../libDaisy//src/hid/midi.h **** 
  61:../../libDaisy//src/hid/midi.h ****     /** @brief Initialization of UART using config struct */
  62:../../libDaisy//src/hid/midi.h ****     inline void Init(Config config)
  63:../../libDaisy//src/hid/midi.h ****     {
  64:../../libDaisy//src/hid/midi.h ****         UartHandler::Config uart_config;
  65:../../libDaisy//src/hid/midi.h **** 
  66:../../libDaisy//src/hid/midi.h ****         //defaults
  67:../../libDaisy//src/hid/midi.h ****         uart_config.baudrate   = 31250;
  68:../../libDaisy//src/hid/midi.h ****         uart_config.stopbits   = UartHandler::Config::StopBits::BITS_1;
  69:../../libDaisy//src/hid/midi.h ****         uart_config.parity     = UartHandler::Config::Parity::NONE;
  70:../../libDaisy//src/hid/midi.h ****         uart_config.mode       = UartHandler::Config::Mode::TX_RX;
  71:../../libDaisy//src/hid/midi.h ****         uart_config.wordlength = UartHandler::Config::WordLength::BITS_8;
ARM GAS  C:\Users\evang\AppData\Local\Temp\ccUReI4Z.s 			page 26


  72:../../libDaisy//src/hid/midi.h **** 
  73:../../libDaisy//src/hid/midi.h ****         //user settings
  74:../../libDaisy//src/hid/midi.h ****         uart_config.periph        = config.periph;
  75:../../libDaisy//src/hid/midi.h ****         uart_config.pin_config.rx = config.rx;
  76:../../libDaisy//src/hid/midi.h ****         uart_config.pin_config.tx = config.tx;
  77:../../libDaisy//src/hid/midi.h **** 
  78:../../libDaisy//src/hid/midi.h ****         rx_buffer      = config.rx_buffer;
  79:../../libDaisy//src/hid/midi.h ****         rx_buffer_size = config.rx_buffer_size;
  80:../../libDaisy//src/hid/midi.h **** 
  81:../../libDaisy//src/hid/midi.h ****         /** zero the buffer to ensure emptiness regardless of source memory */
  82:../../libDaisy//src/hid/midi.h ****         std::fill(rx_buffer, rx_buffer + rx_buffer_size, 0);
  83:../../libDaisy//src/hid/midi.h **** 
  84:../../libDaisy//src/hid/midi.h ****         uart_.Init(uart_config);
  85:../../libDaisy//src/hid/midi.h ****     }
  86:../../libDaisy//src/hid/midi.h **** 
  87:../../libDaisy//src/hid/midi.h ****     /** @brief Start the UART peripheral in listening mode.
  88:../../libDaisy//src/hid/midi.h ****      *  This will fill an internal data structure in the background */
  89:../../libDaisy//src/hid/midi.h ****     inline void StartRx(MidiRxParseCallback parse_callback, void* context)
  90:../../libDaisy//src/hid/midi.h ****     {
  91:../../libDaisy//src/hid/midi.h ****         parse_context_  = context;
  92:../../libDaisy//src/hid/midi.h ****         parse_callback_ = parse_callback;
  93:../../libDaisy//src/hid/midi.h ****         dsy_dma_clear_cache_for_buffer((uint8_t*)this,
  94:../../libDaisy//src/hid/midi.h ****                                        sizeof(MidiUartTransport));
  95:../../libDaisy//src/hid/midi.h ****         uart_.DmaListenStart(
  96:../../libDaisy//src/hid/midi.h ****             rx_buffer, rx_buffer_size, MidiUartTransport::rxCallback, this);
  97:../../libDaisy//src/hid/midi.h ****     }
  98:../../libDaisy//src/hid/midi.h **** 
  99:../../libDaisy//src/hid/midi.h ****     /** @brief returns whether the UART peripheral is actively listening in the background or not *
 100:../../libDaisy//src/hid/midi.h ****     inline bool RxActive() { return uart_.IsListening(); }
 101:../../libDaisy//src/hid/midi.h **** 
 102:../../libDaisy//src/hid/midi.h ****     /** @brief This is a no-op for UART transport - Rx is via DMA callback with circular buffer */
 103:../../libDaisy//src/hid/midi.h ****     inline void FlushRx() {}
 104:../../libDaisy//src/hid/midi.h **** 
 105:../../libDaisy//src/hid/midi.h ****     /** @brief sends the buffer of bytes out of the UART peripheral */
 106:../../libDaisy//src/hid/midi.h ****     inline void Tx(uint8_t* buff, size_t size) { uart_.PollTx(buff, size); }
 107:../../libDaisy//src/hid/midi.h **** 
 108:../../libDaisy//src/hid/midi.h ****   private:
 109:../../libDaisy//src/hid/midi.h ****     UartHandler         uart_;
 110:../../libDaisy//src/hid/midi.h ****     uint8_t*            rx_buffer;
 111:../../libDaisy//src/hid/midi.h ****     size_t              rx_buffer_size;
 112:../../libDaisy//src/hid/midi.h ****     void*               parse_context_;
 113:../../libDaisy//src/hid/midi.h ****     MidiRxParseCallback parse_callback_;
 114:../../libDaisy//src/hid/midi.h **** 
 115:../../libDaisy//src/hid/midi.h ****     /** Static callback for Uart MIDI that occurs when
 116:../../libDaisy//src/hid/midi.h ****          *  new data is available from the peripheral.
 117:../../libDaisy//src/hid/midi.h ****          *  The new data is transferred from the peripheral to the
 118:../../libDaisy//src/hid/midi.h ****          *  MIDI instance's byte FIFO that feeds the MIDI parser.
 119:../../libDaisy//src/hid/midi.h ****          *
 120:../../libDaisy//src/hid/midi.h ****          *  TODO: Handle UartHandler errors better/at all.
 121:../../libDaisy//src/hid/midi.h ****          *  (If there is a UART error, there's not really any recovery
 122:../../libDaisy//src/hid/midi.h ****          *  option at the moment)
 123:../../libDaisy//src/hid/midi.h ****          */
 124:../../libDaisy//src/hid/midi.h ****     static void rxCallback(uint8_t*            data,
 125:../../libDaisy//src/hid/midi.h ****                            size_t              size,
 126:../../libDaisy//src/hid/midi.h ****                            void*               context,
 127:../../libDaisy//src/hid/midi.h ****                            UartHandler::Result res)
 128:../../libDaisy//src/hid/midi.h ****     {
ARM GAS  C:\Users\evang\AppData\Local\Temp\ccUReI4Z.s 			page 27


 129:../../libDaisy//src/hid/midi.h ****         /** Read context as transport type */
 130:../../libDaisy//src/hid/midi.h ****         MidiUartTransport* transport
 131:../../libDaisy//src/hid/midi.h ****             = reinterpret_cast<MidiUartTransport*>(context);
 132:../../libDaisy//src/hid/midi.h ****         if(res == UartHandler::Result::OK)
 133:../../libDaisy//src/hid/midi.h ****         {
 134:../../libDaisy//src/hid/midi.h ****             if(transport->parse_callback_)
 135:../../libDaisy//src/hid/midi.h ****             {
 136:../../libDaisy//src/hid/midi.h ****                 transport->parse_callback_(
 137:../../libDaisy//src/hid/midi.h ****                     data, size, transport->parse_context_);
 138:../../libDaisy//src/hid/midi.h ****             }
 139:../../libDaisy//src/hid/midi.h ****         }
 140:../../libDaisy//src/hid/midi.h ****     }
 141:../../libDaisy//src/hid/midi.h **** };
 142:../../libDaisy//src/hid/midi.h **** 
 143:../../libDaisy//src/hid/midi.h **** /**
 144:../../libDaisy//src/hid/midi.h ****     @brief Simple MIDI Handler \n
 145:../../libDaisy//src/hid/midi.h ****     Parses bytes from an input into valid MidiEvents. \n
 146:../../libDaisy//src/hid/midi.h ****     The MidiEvents fill a FIFO queue that the user can pop messages from.
 147:../../libDaisy//src/hid/midi.h ****     @author shensley
 148:../../libDaisy//src/hid/midi.h ****     @date March 2020
 149:../../libDaisy//src/hid/midi.h ****     @ingroup midi
 150:../../libDaisy//src/hid/midi.h **** */
 151:../../libDaisy//src/hid/midi.h **** template <typename Transport>
 152:../../libDaisy//src/hid/midi.h **** class MidiHandler
 153:../../libDaisy//src/hid/midi.h **** {
 154:../../libDaisy//src/hid/midi.h ****   public:
 155:../../libDaisy//src/hid/midi.h ****     MidiHandler() {}
 156:../../libDaisy//src/hid/midi.h ****     ~MidiHandler() {}
 279              		.loc 12 156 5 is_stmt 1 view -0
 280              		.cfi_startproc
 281              		@ args = 0, pretend = 0, frame = 0
 282              		@ frame_needed = 0, uses_anonymous_args = 0
 283              		@ link register save eliminated.
 284              	.LBB618:
 285              	.LBI618:
 286              		.file 13 "../../libDaisy//src/util/FIFO.h"
   1:../../libDaisy//src/util/FIFO.h **** #pragma once
   2:../../libDaisy//src/util/FIFO.h **** 
   3:../../libDaisy//src/util/FIFO.h **** #include <stdint.h>
   4:../../libDaisy//src/util/FIFO.h **** #include <stddef.h>
   5:../../libDaisy//src/util/FIFO.h **** #include <initializer_list>
   6:../../libDaisy//src/util/FIFO.h **** 
   7:../../libDaisy//src/util/FIFO.h **** namespace daisy
   8:../../libDaisy//src/util/FIFO.h **** {
   9:../../libDaisy//src/util/FIFO.h **** /** Capacity-independent base class for FIFO. Use FIFO instead. */
  10:../../libDaisy//src/util/FIFO.h **** template <typename T>
  11:../../libDaisy//src/util/FIFO.h **** class FIFOBase
  12:../../libDaisy//src/util/FIFO.h **** {
  13:../../libDaisy//src/util/FIFO.h ****   protected:
  14:../../libDaisy//src/util/FIFO.h ****     FIFOBase(T* buffer, size_t bufferSize)
  15:../../libDaisy//src/util/FIFO.h ****     : buffer_(buffer), bufferSize_(bufferSize), bufferIn_(0), bufferOut_(0)
  16:../../libDaisy//src/util/FIFO.h ****     {
  17:../../libDaisy//src/util/FIFO.h ****     }
  18:../../libDaisy//src/util/FIFO.h **** 
  19:../../libDaisy//src/util/FIFO.h ****     FIFOBase(T* buffer, size_t bufferSize, std::initializer_list<T> valuesToAdd)
  20:../../libDaisy//src/util/FIFO.h ****     : buffer_(buffer), bufferSize_(bufferSize), bufferIn_(0), bufferOut_(0)
  21:../../libDaisy//src/util/FIFO.h ****     {
ARM GAS  C:\Users\evang\AppData\Local\Temp\ccUReI4Z.s 			page 28


  22:../../libDaisy//src/util/FIFO.h ****         PushBack(valuesToAdd);
  23:../../libDaisy//src/util/FIFO.h ****     }
  24:../../libDaisy//src/util/FIFO.h **** 
  25:../../libDaisy//src/util/FIFO.h ****   public:
  26:../../libDaisy//src/util/FIFO.h ****     /** Copies all elements from another FIFO */
  27:../../libDaisy//src/util/FIFO.h ****     FIFOBase<T>& operator=(const FIFOBase<T>& other)
  28:../../libDaisy//src/util/FIFO.h ****     {
  29:../../libDaisy//src/util/FIFO.h ****         bufferIn_ = bufferOut_ = 0;
  30:../../libDaisy//src/util/FIFO.h ****         if(!other.IsEmpty())
  31:../../libDaisy//src/util/FIFO.h ****         {
  32:../../libDaisy//src/util/FIFO.h ****             int readPtr = other.bufferOut_;
  33:../../libDaisy//src/util/FIFO.h ****             while((readPtr != other.bufferIn_) && (bufferIn_ < bufferSize_))
  34:../../libDaisy//src/util/FIFO.h ****             {
  35:../../libDaisy//src/util/FIFO.h ****                 buffer_[bufferIn_++] = other.buffer_[readPtr++];
  36:../../libDaisy//src/util/FIFO.h ****                 if(readPtr >= other.bufferSize_)
  37:../../libDaisy//src/util/FIFO.h ****                     readPtr -= other.bufferSize_;
  38:../../libDaisy//src/util/FIFO.h ****             }
  39:../../libDaisy//src/util/FIFO.h ****         }
  40:../../libDaisy//src/util/FIFO.h ****         return *this;
  41:../../libDaisy//src/util/FIFO.h ****     }
  42:../../libDaisy//src/util/FIFO.h ****     ~FIFOBase() {}
  43:../../libDaisy//src/util/FIFO.h **** 
  44:../../libDaisy//src/util/FIFO.h ****     /** Removes all elements from the FIFO */
  45:../../libDaisy//src/util/FIFO.h ****     void Clear() { bufferIn_ = bufferOut_ = 0; }
  46:../../libDaisy//src/util/FIFO.h **** 
  47:../../libDaisy//src/util/FIFO.h ****     /** Adds an element to the back of the buffer, returning true on
  48:../../libDaisy//src/util/FIFO.h ****         success */
  49:../../libDaisy//src/util/FIFO.h ****     bool PushBack(const T& elementToAdd)
  50:../../libDaisy//src/util/FIFO.h ****     {
  51:../../libDaisy//src/util/FIFO.h ****         if(!IsFull())
  52:../../libDaisy//src/util/FIFO.h ****         {
  53:../../libDaisy//src/util/FIFO.h ****             buffer_[bufferIn_++] = elementToAdd;
  54:../../libDaisy//src/util/FIFO.h ****             if(bufferIn_ >= bufferSize_)
  55:../../libDaisy//src/util/FIFO.h ****                 bufferIn_ -= bufferSize_;
  56:../../libDaisy//src/util/FIFO.h ****             return true;
  57:../../libDaisy//src/util/FIFO.h ****         }
  58:../../libDaisy//src/util/FIFO.h ****         return false;
  59:../../libDaisy//src/util/FIFO.h ****     }
  60:../../libDaisy//src/util/FIFO.h **** 
  61:../../libDaisy//src/util/FIFO.h ****     /** Adds multiple elements and returns the number of elements that were added */
  62:../../libDaisy//src/util/FIFO.h ****     int PushBack(std::initializer_list<T> valuesToAdd)
  63:../../libDaisy//src/util/FIFO.h ****     {
  64:../../libDaisy//src/util/FIFO.h ****         int numAdded = 0;
  65:../../libDaisy//src/util/FIFO.h ****         for(const auto& v : valuesToAdd)
  66:../../libDaisy//src/util/FIFO.h ****         {
  67:../../libDaisy//src/util/FIFO.h ****             if(IsFull())
  68:../../libDaisy//src/util/FIFO.h ****                 return numAdded;
  69:../../libDaisy//src/util/FIFO.h **** 
  70:../../libDaisy//src/util/FIFO.h ****             PushBack(v);
  71:../../libDaisy//src/util/FIFO.h ****             numAdded++;
  72:../../libDaisy//src/util/FIFO.h ****         }
  73:../../libDaisy//src/util/FIFO.h ****         return numAdded;
  74:../../libDaisy//src/util/FIFO.h ****     }
  75:../../libDaisy//src/util/FIFO.h **** 
  76:../../libDaisy//src/util/FIFO.h ****     /** returns a reference to the last element */
  77:../../libDaisy//src/util/FIFO.h ****     T& Back()
  78:../../libDaisy//src/util/FIFO.h ****     {
ARM GAS  C:\Users\evang\AppData\Local\Temp\ccUReI4Z.s 			page 29


  79:../../libDaisy//src/util/FIFO.h ****         if(IsEmpty())
  80:../../libDaisy//src/util/FIFO.h ****             // invalid, but better not pass a temporary T() object as a reference...
  81:../../libDaisy//src/util/FIFO.h ****             return buffer_[0];
  82:../../libDaisy//src/util/FIFO.h ****         int idx = bufferIn_ - 1;
  83:../../libDaisy//src/util/FIFO.h ****         if(idx < 0)
  84:../../libDaisy//src/util/FIFO.h ****             idx += bufferSize_;
  85:../../libDaisy//src/util/FIFO.h ****         return buffer_[idx];
  86:../../libDaisy//src/util/FIFO.h ****     }
  87:../../libDaisy//src/util/FIFO.h **** 
  88:../../libDaisy//src/util/FIFO.h ****     /** returns a reference to the last element */
  89:../../libDaisy//src/util/FIFO.h ****     const T& Back() const
  90:../../libDaisy//src/util/FIFO.h ****     {
  91:../../libDaisy//src/util/FIFO.h ****         if(IsEmpty())
  92:../../libDaisy//src/util/FIFO.h ****             // invalid, but better not pass a temporary T() object as a reference...
  93:../../libDaisy//src/util/FIFO.h ****             return buffer_[0];
  94:../../libDaisy//src/util/FIFO.h ****         int idx = bufferIn_ - 1;
  95:../../libDaisy//src/util/FIFO.h ****         if(idx < 0)
  96:../../libDaisy//src/util/FIFO.h ****             idx += bufferSize_;
  97:../../libDaisy//src/util/FIFO.h ****         return buffer_[idx];
  98:../../libDaisy//src/util/FIFO.h ****     }
  99:../../libDaisy//src/util/FIFO.h **** 
 100:../../libDaisy//src/util/FIFO.h ****     /** removes and returns an element from the front of the buffer */
 101:../../libDaisy//src/util/FIFO.h ****     T PopFront()
 102:../../libDaisy//src/util/FIFO.h ****     {
 103:../../libDaisy//src/util/FIFO.h ****         if(IsEmpty())
 104:../../libDaisy//src/util/FIFO.h ****             return T();
 105:../../libDaisy//src/util/FIFO.h ****         else
 106:../../libDaisy//src/util/FIFO.h ****         {
 107:../../libDaisy//src/util/FIFO.h ****             const auto result = buffer_[bufferOut_];
 108:../../libDaisy//src/util/FIFO.h ****             bufferOut_++;
 109:../../libDaisy//src/util/FIFO.h ****             if(bufferOut_ >= bufferSize_)
 110:../../libDaisy//src/util/FIFO.h ****                 bufferOut_ -= bufferSize_;
 111:../../libDaisy//src/util/FIFO.h ****             return result;
 112:../../libDaisy//src/util/FIFO.h ****         }
 113:../../libDaisy//src/util/FIFO.h ****     }
 114:../../libDaisy//src/util/FIFO.h **** 
 115:../../libDaisy//src/util/FIFO.h ****     /** returns a copy of the first element */
 116:../../libDaisy//src/util/FIFO.h ****     T& Front()
 117:../../libDaisy//src/util/FIFO.h ****     {
 118:../../libDaisy//src/util/FIFO.h ****         if(IsEmpty())
 119:../../libDaisy//src/util/FIFO.h ****             // invalid, but better not pass a temporary T() object as a reference...
 120:../../libDaisy//src/util/FIFO.h ****             return buffer_[0];
 121:../../libDaisy//src/util/FIFO.h ****         return buffer_[bufferOut_];
 122:../../libDaisy//src/util/FIFO.h ****     }
 123:../../libDaisy//src/util/FIFO.h **** 
 124:../../libDaisy//src/util/FIFO.h ****     /** returns a reference to the first element */
 125:../../libDaisy//src/util/FIFO.h ****     const T& Front() const
 126:../../libDaisy//src/util/FIFO.h ****     {
 127:../../libDaisy//src/util/FIFO.h ****         if(IsEmpty())
 128:../../libDaisy//src/util/FIFO.h ****             // invalid, but better not pass a temporary T() object as a reference...
 129:../../libDaisy//src/util/FIFO.h ****             return buffer_[0];
 130:../../libDaisy//src/util/FIFO.h ****         return buffer_[bufferOut_];
 131:../../libDaisy//src/util/FIFO.h ****     }
 132:../../libDaisy//src/util/FIFO.h **** 
 133:../../libDaisy//src/util/FIFO.h ****     /** Returns true if the buffer contains an element equal to the provided value */
 134:../../libDaisy//src/util/FIFO.h ****     bool Contains(const T& element)
 135:../../libDaisy//src/util/FIFO.h ****     {
ARM GAS  C:\Users\evang\AppData\Local\Temp\ccUReI4Z.s 			page 30


 136:../../libDaisy//src/util/FIFO.h ****         auto idx = bufferOut_;
 137:../../libDaisy//src/util/FIFO.h ****         while(idx != bufferIn_)
 138:../../libDaisy//src/util/FIFO.h ****         {
 139:../../libDaisy//src/util/FIFO.h ****             if(buffer_[idx] == element)
 140:../../libDaisy//src/util/FIFO.h ****                 return true;
 141:../../libDaisy//src/util/FIFO.h ****             idx++;
 142:../../libDaisy//src/util/FIFO.h ****             if(idx >= bufferSize_)
 143:../../libDaisy//src/util/FIFO.h ****                 idx -= bufferSize_;
 144:../../libDaisy//src/util/FIFO.h ****         }
 145:../../libDaisy//src/util/FIFO.h ****         return false;
 146:../../libDaisy//src/util/FIFO.h ****     }
 147:../../libDaisy//src/util/FIFO.h **** 
 148:../../libDaisy//src/util/FIFO.h ****     /** Returns the number of elements in the buffer that are equal to the provided value */
 149:../../libDaisy//src/util/FIFO.h ****     size_t CountEqualTo(const T& element)
 150:../../libDaisy//src/util/FIFO.h ****     {
 151:../../libDaisy//src/util/FIFO.h ****         size_t result = 0;
 152:../../libDaisy//src/util/FIFO.h ****         size_t idx    = bufferOut_;
 153:../../libDaisy//src/util/FIFO.h ****         while(idx != bufferIn_)
 154:../../libDaisy//src/util/FIFO.h ****         {
 155:../../libDaisy//src/util/FIFO.h ****             if(buffer_[idx] == element)
 156:../../libDaisy//src/util/FIFO.h ****                 result++;
 157:../../libDaisy//src/util/FIFO.h ****             idx++;
 158:../../libDaisy//src/util/FIFO.h ****             if(idx >= bufferSize_)
 159:../../libDaisy//src/util/FIFO.h ****                 idx -= bufferSize_;
 160:../../libDaisy//src/util/FIFO.h ****         }
 161:../../libDaisy//src/util/FIFO.h ****         return result;
 162:../../libDaisy//src/util/FIFO.h ****     }
 163:../../libDaisy//src/util/FIFO.h **** 
 164:../../libDaisy//src/util/FIFO.h ****     /** returns true, if the buffer is empty */
 165:../../libDaisy//src/util/FIFO.h ****     bool IsEmpty() const { return bufferIn_ == bufferOut_; }
 166:../../libDaisy//src/util/FIFO.h **** 
 167:../../libDaisy//src/util/FIFO.h ****     /** returns true, if the buffer is Full */
 168:../../libDaisy//src/util/FIFO.h ****     bool IsFull() const { return GetNumElements() == bufferSize_ - 1; }
 169:../../libDaisy//src/util/FIFO.h **** 
 170:../../libDaisy//src/util/FIFO.h ****     /** returns the number of elements in the buffer */
 171:../../libDaisy//src/util/FIFO.h ****     size_t GetNumElements() const
 172:../../libDaisy//src/util/FIFO.h ****     {
 173:../../libDaisy//src/util/FIFO.h ****         int32_t numElements = bufferIn_ - bufferOut_;
 174:../../libDaisy//src/util/FIFO.h ****         if(numElements < 0)
 175:../../libDaisy//src/util/FIFO.h ****             numElements += bufferSize_;
 176:../../libDaisy//src/util/FIFO.h ****         return size_t(numElements);
 177:../../libDaisy//src/util/FIFO.h ****     }
 178:../../libDaisy//src/util/FIFO.h **** 
 179:../../libDaisy//src/util/FIFO.h ****     /** inserts an element "idx" positions behind the first element and returns true if successful 
 180:../../libDaisy//src/util/FIFO.h ****     bool Insert(size_t idx, const T& element)
 181:../../libDaisy//src/util/FIFO.h ****     {
 182:../../libDaisy//src/util/FIFO.h ****         if(idx > GetNumElements())
 183:../../libDaisy//src/util/FIFO.h ****             return false;
 184:../../libDaisy//src/util/FIFO.h ****         if(IsFull())
 185:../../libDaisy//src/util/FIFO.h ****             return false;
 186:../../libDaisy//src/util/FIFO.h ****         if(idx == GetNumElements())
 187:../../libDaisy//src/util/FIFO.h ****         {
 188:../../libDaisy//src/util/FIFO.h ****             PushBack(element);
 189:../../libDaisy//src/util/FIFO.h ****             return true;
 190:../../libDaisy//src/util/FIFO.h ****         }
 191:../../libDaisy//src/util/FIFO.h ****         // copy last element
 192:../../libDaisy//src/util/FIFO.h ****         PushBack(Back());
ARM GAS  C:\Users\evang\AppData\Local\Temp\ccUReI4Z.s 			page 31


 193:../../libDaisy//src/util/FIFO.h ****         // move remaining elements: n => n+1
 194:../../libDaisy//src/util/FIFO.h ****         for(int i = GetNumElements() - 2; i > int(idx); i--)
 195:../../libDaisy//src/util/FIFO.h ****             (*this)[i] = (*this)[i - 1];
 196:../../libDaisy//src/util/FIFO.h ****         // insert element
 197:../../libDaisy//src/util/FIFO.h ****         (*this)[idx] = element;
 198:../../libDaisy//src/util/FIFO.h ****         return true;
 199:../../libDaisy//src/util/FIFO.h ****     }
 200:../../libDaisy//src/util/FIFO.h **** 
 201:../../libDaisy//src/util/FIFO.h ****     /** removes the element "idx" positions behind the first element 
 202:../../libDaisy//src/util/FIFO.h ****      *  and returns true if successful */
 203:../../libDaisy//src/util/FIFO.h ****     bool Remove(size_t idx)
 204:../../libDaisy//src/util/FIFO.h ****     {
 205:../../libDaisy//src/util/FIFO.h ****         if(idx >= GetNumElements())
 206:../../libDaisy//src/util/FIFO.h ****             return false;
 207:../../libDaisy//src/util/FIFO.h **** 
 208:../../libDaisy//src/util/FIFO.h ****         size_t index = bufferOut_ + idx;
 209:../../libDaisy//src/util/FIFO.h ****         if(index >= bufferSize_)
 210:../../libDaisy//src/util/FIFO.h ****             index -= bufferSize_;
 211:../../libDaisy//src/util/FIFO.h ****         size_t nextIndex = index + 1;
 212:../../libDaisy//src/util/FIFO.h ****         if(nextIndex >= bufferSize_)
 213:../../libDaisy//src/util/FIFO.h ****             nextIndex -= bufferSize_;
 214:../../libDaisy//src/util/FIFO.h **** 
 215:../../libDaisy//src/util/FIFO.h ****         while(nextIndex != bufferIn_)
 216:../../libDaisy//src/util/FIFO.h ****         {
 217:../../libDaisy//src/util/FIFO.h ****             buffer_[index] = buffer_[nextIndex];
 218:../../libDaisy//src/util/FIFO.h ****             index++;
 219:../../libDaisy//src/util/FIFO.h ****             nextIndex++;
 220:../../libDaisy//src/util/FIFO.h ****             if(index >= bufferSize_)
 221:../../libDaisy//src/util/FIFO.h ****                 index -= bufferSize_;
 222:../../libDaisy//src/util/FIFO.h ****             if(nextIndex >= bufferSize_)
 223:../../libDaisy//src/util/FIFO.h ****                 nextIndex -= bufferSize_;
 224:../../libDaisy//src/util/FIFO.h ****         }
 225:../../libDaisy//src/util/FIFO.h **** 
 226:../../libDaisy//src/util/FIFO.h ****         int32_t nextBufferIn = int32_t(bufferIn_) - 1;
 227:../../libDaisy//src/util/FIFO.h ****         if(nextBufferIn < 0)
 228:../../libDaisy//src/util/FIFO.h ****             nextBufferIn += bufferSize_;
 229:../../libDaisy//src/util/FIFO.h ****         bufferIn_ = size_t(nextBufferIn);
 230:../../libDaisy//src/util/FIFO.h **** 
 231:../../libDaisy//src/util/FIFO.h ****         return true;
 232:../../libDaisy//src/util/FIFO.h ****     }
 233:../../libDaisy//src/util/FIFO.h **** 
 234:../../libDaisy//src/util/FIFO.h ****     /** removes all elements from the buffer for which
 235:../../libDaisy//src/util/FIFO.h ****         (buffer(index) == element) returns true and returns the number of
 236:../../libDaisy//src/util/FIFO.h ****         elements that were removed. */
 237:../../libDaisy//src/util/FIFO.h ****     size_t RemoveAllEqualTo(const T& element)
 238:../../libDaisy//src/util/FIFO.h ****     {
 239:../../libDaisy//src/util/FIFO.h ****         size_t numRemoved = 0;
 240:../../libDaisy//src/util/FIFO.h ****         int    idx        = GetNumElements() - 1;
 241:../../libDaisy//src/util/FIFO.h ****         while(idx >= 0)
 242:../../libDaisy//src/util/FIFO.h ****         {
 243:../../libDaisy//src/util/FIFO.h ****             if((*this)[idx] == element)
 244:../../libDaisy//src/util/FIFO.h ****             {
 245:../../libDaisy//src/util/FIFO.h ****                 numRemoved++;
 246:../../libDaisy//src/util/FIFO.h ****                 Remove(idx);
 247:../../libDaisy//src/util/FIFO.h ****                 // was that the last element?
 248:../../libDaisy//src/util/FIFO.h ****                 if(idx == int(GetNumElements()) - 1)
 249:../../libDaisy//src/util/FIFO.h ****                     idx--;
ARM GAS  C:\Users\evang\AppData\Local\Temp\ccUReI4Z.s 			page 32


 250:../../libDaisy//src/util/FIFO.h ****             }
 251:../../libDaisy//src/util/FIFO.h ****             else
 252:../../libDaisy//src/util/FIFO.h ****                 idx--;
 253:../../libDaisy//src/util/FIFO.h ****         }
 254:../../libDaisy//src/util/FIFO.h ****         return numRemoved;
 255:../../libDaisy//src/util/FIFO.h ****     }
 256:../../libDaisy//src/util/FIFO.h **** 
 257:../../libDaisy//src/util/FIFO.h ****     /** returns the element "idx" positions behind the first element */
 258:../../libDaisy//src/util/FIFO.h ****     T& operator[](size_t idx)
 259:../../libDaisy//src/util/FIFO.h ****     {
 260:../../libDaisy//src/util/FIFO.h ****         if(idx >= GetNumElements())
 261:../../libDaisy//src/util/FIFO.h ****             // invalid, but better not pass a temporary T() object as a reference...
 262:../../libDaisy//src/util/FIFO.h ****             return buffer_[0];
 263:../../libDaisy//src/util/FIFO.h **** 
 264:../../libDaisy//src/util/FIFO.h ****         size_t index = bufferOut_ + idx;
 265:../../libDaisy//src/util/FIFO.h ****         if(index >= bufferSize_)
 266:../../libDaisy//src/util/FIFO.h ****             index -= bufferSize_;
 267:../../libDaisy//src/util/FIFO.h ****         return buffer_[index];
 268:../../libDaisy//src/util/FIFO.h ****     }
 269:../../libDaisy//src/util/FIFO.h **** 
 270:../../libDaisy//src/util/FIFO.h ****     /** returns the element "idx" positions behind the first element */
 271:../../libDaisy//src/util/FIFO.h ****     const T& operator[](size_t idx) const
 272:../../libDaisy//src/util/FIFO.h ****     {
 273:../../libDaisy//src/util/FIFO.h ****         if(idx >= GetNumElements())
 274:../../libDaisy//src/util/FIFO.h ****             // invalid, but better not pass a temporary T() object as a reference...
 275:../../libDaisy//src/util/FIFO.h ****             return buffer_[0];
 276:../../libDaisy//src/util/FIFO.h **** 
 277:../../libDaisy//src/util/FIFO.h ****         size_t index = bufferOut_ + idx;
 278:../../libDaisy//src/util/FIFO.h ****         if(index >= bufferSize_)
 279:../../libDaisy//src/util/FIFO.h ****             index -= bufferSize_;
 280:../../libDaisy//src/util/FIFO.h ****         return buffer_[index];
 281:../../libDaisy//src/util/FIFO.h ****     }
 282:../../libDaisy//src/util/FIFO.h **** 
 283:../../libDaisy//src/util/FIFO.h ****     /** returns the total capacity */
 284:../../libDaisy//src/util/FIFO.h ****     size_t GetCapacity() const { return bufferSize_ - 1; }
 285:../../libDaisy//src/util/FIFO.h **** 
 286:../../libDaisy//src/util/FIFO.h ****   private:
 287:../../libDaisy//src/util/FIFO.h ****     FIFOBase(const FIFOBase<T>&) {} // non copyable
 288:../../libDaisy//src/util/FIFO.h **** 
 289:../../libDaisy//src/util/FIFO.h ****   private:
 290:../../libDaisy//src/util/FIFO.h ****     T*           buffer_;
 291:../../libDaisy//src/util/FIFO.h ****     const size_t bufferSize_;
 292:../../libDaisy//src/util/FIFO.h ****     size_t       bufferIn_;
 293:../../libDaisy//src/util/FIFO.h ****     size_t       bufferOut_;
 294:../../libDaisy//src/util/FIFO.h **** };
 295:../../libDaisy//src/util/FIFO.h **** 
 296:../../libDaisy//src/util/FIFO.h **** /** A simple FIFO ring buffer with a fixed size. */
 297:../../libDaisy//src/util/FIFO.h **** template <typename T, size_t capacity>
 298:../../libDaisy//src/util/FIFO.h **** class FIFO : public FIFOBase<T>
 287              		.loc 13 298 7 view .LVU35
 288              	.LBB619:
 289              	.LBI619:
  42:../../libDaisy//src/util/FIFO.h **** 
 290              		.loc 13 42 5 view .LVU36
  42:../../libDaisy//src/util/FIFO.h **** 
 291              		.loc 13 42 5 is_stmt 0 view .LVU37
 292              	.LBE619:
ARM GAS  C:\Users\evang\AppData\Local\Temp\ccUReI4Z.s 			page 33


 293              	.LBE618:
 294              	.LBB620:
 295              	.LBI620:
 296              		.file 14 "../../libDaisy//src/hid/midi_parser.h"
   1:../../libDaisy//src/hid/midi_parser.h **** #pragma once
   2:../../libDaisy//src/hid/midi_parser.h **** #ifndef DSY_MIDI_PARSER_H
   3:../../libDaisy//src/hid/midi_parser.h **** #define DSY_MIDI_PARSER_H
   4:../../libDaisy//src/hid/midi_parser.h **** 
   5:../../libDaisy//src/hid/midi_parser.h **** #include <stdint.h>
   6:../../libDaisy//src/hid/midi_parser.h **** #include <stdlib.h>
   7:../../libDaisy//src/hid/midi_parser.h **** #include "hid/MidiEvent.h"
   8:../../libDaisy//src/hid/midi_parser.h **** 
   9:../../libDaisy//src/hid/midi_parser.h **** namespace daisy
  10:../../libDaisy//src/hid/midi_parser.h **** {
  11:../../libDaisy//src/hid/midi_parser.h **** /** @brief   Utility class for parsing raw byte streams into MIDI messages
  12:../../libDaisy//src/hid/midi_parser.h ****  *  @details Implemented as a state machine designed to parse one byte at a time
  13:../../libDaisy//src/hid/midi_parser.h ****  *  @ingroup midi
  14:../../libDaisy//src/hid/midi_parser.h ****  */
  15:../../libDaisy//src/hid/midi_parser.h **** class MidiParser
  16:../../libDaisy//src/hid/midi_parser.h **** {
  17:../../libDaisy//src/hid/midi_parser.h ****   public:
  18:../../libDaisy//src/hid/midi_parser.h ****     MidiParser(){};
  19:../../libDaisy//src/hid/midi_parser.h ****     ~MidiParser() {}
 297              		.loc 14 19 5 is_stmt 1 view .LVU38
 298              		.loc 14 19 5 is_stmt 0 view .LVU39
 299              	.LBE620:
 300              	.LBB621:
 301              	.LBI621:
 302              		.file 15 "../../libDaisy//src/hid/usb_midi.h"
   1:../../libDaisy//src/hid/usb_midi.h **** #pragma once
   2:../../libDaisy//src/hid/usb_midi.h **** #ifndef __DSY_MIDIUSBTRANSPORT_H__
   3:../../libDaisy//src/hid/usb_midi.h **** #define __DSY_MIDIUSBTRANSPORT_H__
   4:../../libDaisy//src/hid/usb_midi.h **** 
   5:../../libDaisy//src/hid/usb_midi.h **** #include "hid/usb.h"
   6:../../libDaisy//src/hid/usb_midi.h **** #include "sys/system.h"
   7:../../libDaisy//src/hid/usb_midi.h **** #include "util/ringbuffer.h"
   8:../../libDaisy//src/hid/usb_midi.h **** 
   9:../../libDaisy//src/hid/usb_midi.h **** namespace daisy
  10:../../libDaisy//src/hid/usb_midi.h **** {
  11:../../libDaisy//src/hid/usb_midi.h **** /** @brief USB Transport for MIDI
  12:../../libDaisy//src/hid/usb_midi.h ****  *  @ingroup midi
  13:../../libDaisy//src/hid/usb_midi.h ****  */
  14:../../libDaisy//src/hid/usb_midi.h **** class MidiUsbTransport
  15:../../libDaisy//src/hid/usb_midi.h **** {
  16:../../libDaisy//src/hid/usb_midi.h ****   public:
  17:../../libDaisy//src/hid/usb_midi.h ****     typedef void (*MidiRxParseCallback)(uint8_t* data,
  18:../../libDaisy//src/hid/usb_midi.h ****                                         size_t   size,
  19:../../libDaisy//src/hid/usb_midi.h ****                                         void*    context);
  20:../../libDaisy//src/hid/usb_midi.h **** 
  21:../../libDaisy//src/hid/usb_midi.h ****     struct Config
  22:../../libDaisy//src/hid/usb_midi.h ****     {
  23:../../libDaisy//src/hid/usb_midi.h ****         enum Periph
  24:../../libDaisy//src/hid/usb_midi.h ****         {
  25:../../libDaisy//src/hid/usb_midi.h ****             INTERNAL = 0,
  26:../../libDaisy//src/hid/usb_midi.h ****             EXTERNAL
  27:../../libDaisy//src/hid/usb_midi.h ****         };
  28:../../libDaisy//src/hid/usb_midi.h **** 
ARM GAS  C:\Users\evang\AppData\Local\Temp\ccUReI4Z.s 			page 34


  29:../../libDaisy//src/hid/usb_midi.h ****         Periph periph;
  30:../../libDaisy//src/hid/usb_midi.h **** 
  31:../../libDaisy//src/hid/usb_midi.h ****         /**
  32:../../libDaisy//src/hid/usb_midi.h ****          * When sending MIDI messages immediately back-to-back in user code,
  33:../../libDaisy//src/hid/usb_midi.h ****          * sometimes the USB CDC driver is still "busy".
  34:../../libDaisy//src/hid/usb_midi.h ****          *
  35:../../libDaisy//src/hid/usb_midi.h ****          * This option configures the number of times to retry a Tx after
  36:../../libDaisy//src/hid/usb_midi.h ****          * delaying for 100 microseconds (default = 3 retries).
  37:../../libDaisy//src/hid/usb_midi.h ****          *
  38:../../libDaisy//src/hid/usb_midi.h ****          * If you set this to zero, Tx will not retry so the attempt will block
  39:../../libDaisy//src/hid/usb_midi.h ****          * for slightly less time, but transmit can fail if the Tx state is busy.
  40:../../libDaisy//src/hid/usb_midi.h ****          */
  41:../../libDaisy//src/hid/usb_midi.h ****         uint8_t tx_retry_count;
  42:../../libDaisy//src/hid/usb_midi.h **** 
  43:../../libDaisy//src/hid/usb_midi.h ****         Config() : periph(INTERNAL), tx_retry_count(3) {}
  44:../../libDaisy//src/hid/usb_midi.h ****     };
  45:../../libDaisy//src/hid/usb_midi.h **** 
  46:../../libDaisy//src/hid/usb_midi.h ****     void Init(Config config);
  47:../../libDaisy//src/hid/usb_midi.h **** 
  48:../../libDaisy//src/hid/usb_midi.h ****     void StartRx(MidiRxParseCallback callback, void* context);
  49:../../libDaisy//src/hid/usb_midi.h ****     bool RxActive();
  50:../../libDaisy//src/hid/usb_midi.h ****     void FlushRx();
  51:../../libDaisy//src/hid/usb_midi.h ****     void Tx(uint8_t* buffer, size_t size);
  52:../../libDaisy//src/hid/usb_midi.h **** 
  53:../../libDaisy//src/hid/usb_midi.h ****     class Impl;
  54:../../libDaisy//src/hid/usb_midi.h **** 
  55:../../libDaisy//src/hid/usb_midi.h ****     MidiUsbTransport() : pimpl_(nullptr) {}
  56:../../libDaisy//src/hid/usb_midi.h ****     ~MidiUsbTransport() {}
 303              		.loc 15 56 5 is_stmt 1 view .LVU40
 304              		.loc 15 56 5 is_stmt 0 view .LVU41
 305              	.LBE621:
 306              		.loc 12 156 21 view .LVU42
 307 0000 7047     		bx	lr
 308              		.cfi_endproc
 309              	.LFE5347:
 311              		.weak	_ZN5daisy11MidiHandlerINS_16MidiUsbTransportEED1Ev
 312              		.thumb_set _ZN5daisy11MidiHandlerINS_16MidiUsbTransportEED1Ev,_ZN5daisy11MidiHandlerINS_16MidiUsbT
 313 0002 00BF     		.section	.text._ZN5daisy11OledDisplayINS_13SSD130xDriverILj128ELj64ENS_19SSD130xI2CTransportEEEED0
 314              		.align	1
 315              		.p2align 2,,3
 316              		.weak	_ZN5daisy11OledDisplayINS_13SSD130xDriverILj128ELj64ENS_19SSD130xI2CTransportEEEED0Ev
 317              		.syntax unified
 318              		.thumb
 319              		.thumb_func
 320              		.fpu fpv5-d16
 322              	_ZN5daisy11OledDisplayINS_13SSD130xDriverILj128ELj64ENS_19SSD130xI2CTransportEEEED0Ev:
 323              	.LVL14:
 324              	.LFB5339:
  18:../../libDaisy//src/hid/disp/oled_display.h **** 
 325              		.loc 9 18 13 is_stmt 1 view -0
 326              		.cfi_startproc
 327              		@ args = 0, pretend = 0, frame = 0
 328              		@ frame_needed = 0, uses_anonymous_args = 0
  18:../../libDaisy//src/hid/disp/oled_display.h **** 
 329              		.loc 9 18 13 is_stmt 0 view .LVU44
 330 0000 10B5     		push	{r4, lr}
 331              		.cfi_def_cfa_offset 8
ARM GAS  C:\Users\evang\AppData\Local\Temp\ccUReI4Z.s 			page 35


 332              		.cfi_offset 4, -8
 333              		.cfi_offset 14, -4
  18:../../libDaisy//src/hid/disp/oled_display.h **** 
 334              		.loc 9 18 13 view .LVU45
 335 0002 0446     		mov	r4, r0
 336              	.LVL15:
 337              	.LBB622:
 338              	.LBI622:
  18:../../libDaisy//src/hid/disp/oled_display.h **** 
 339              		.loc 9 18 13 is_stmt 1 view .LVU46
 340              	.LBB623:
 341              	.LBI623:
 342              		.loc 11 219 13 view .LVU47
 343              	.LBB624:
 344              	.LBI624:
  23:../../libDaisy//src/hid/disp/display.h **** 
 345              		.loc 11 23 13 view .LVU48
  23:../../libDaisy//src/hid/disp/display.h **** 
 346              		.loc 11 23 13 is_stmt 0 view .LVU49
 347              	.LBE624:
 348              	.LBE623:
 349              	.LBE622:
  18:../../libDaisy//src/hid/disp/oled_display.h **** 
 350              		.loc 9 18 29 view .LVU50
 351 0004 4FF48261 		mov	r1, #1040
 352 0008 FFF7FEFF 		bl	_ZdlPvj
 353              	.LVL16:
  18:../../libDaisy//src/hid/disp/oled_display.h **** 
 354              		.loc 9 18 29 view .LVU51
 355 000c 2046     		mov	r0, r4
 356 000e 10BD     		pop	{r4, pc}
  18:../../libDaisy//src/hid/disp/oled_display.h **** 
 357              		.loc 9 18 29 view .LVU52
 358              		.cfi_endproc
 359              	.LFE5339:
 361              		.section	.text._ZN5daisy11MidiHandlerINS_16MidiUsbTransportEE13ParseCallbackEPhjPv,"axG",%progbits
 362              		.align	1
 363              		.p2align 2,,3
 364              		.weak	_ZN5daisy11MidiHandlerINS_16MidiUsbTransportEE13ParseCallbackEPhjPv
 365              		.syntax unified
 366              		.thumb
 367              		.thumb_func
 368              		.fpu fpv5-d16
 370              	_ZN5daisy11MidiHandlerINS_16MidiUsbTransportEE13ParseCallbackEPhjPv:
 371              	.LVL17:
 372              	.LFB5229:
 157:../../libDaisy//src/hid/midi.h **** 
 158:../../libDaisy//src/hid/midi.h ****     struct Config
 159:../../libDaisy//src/hid/midi.h ****     {
 160:../../libDaisy//src/hid/midi.h ****         typename Transport::Config transport_config;
 161:../../libDaisy//src/hid/midi.h ****     };
 162:../../libDaisy//src/hid/midi.h **** 
 163:../../libDaisy//src/hid/midi.h ****     /** Initializes the MidiHandler
 164:../../libDaisy//src/hid/midi.h ****      *  \param config Configuration structure used to define specifics to the MIDI Handler.
 165:../../libDaisy//src/hid/midi.h ****      */
 166:../../libDaisy//src/hid/midi.h ****     void Init(Config config)
 167:../../libDaisy//src/hid/midi.h ****     {
ARM GAS  C:\Users\evang\AppData\Local\Temp\ccUReI4Z.s 			page 36


 168:../../libDaisy//src/hid/midi.h ****         config_ = config;
 169:../../libDaisy//src/hid/midi.h ****         transport_.Init(config_.transport_config);
 170:../../libDaisy//src/hid/midi.h ****         parser_.Init();
 171:../../libDaisy//src/hid/midi.h ****     }
 172:../../libDaisy//src/hid/midi.h **** 
 173:../../libDaisy//src/hid/midi.h ****     /** Starts listening on the selected input mode(s).
 174:../../libDaisy//src/hid/midi.h ****      * MidiEvent Queue will begin to fill, and can be checked with HasEvents() */
 175:../../libDaisy//src/hid/midi.h ****     void StartReceive()
 176:../../libDaisy//src/hid/midi.h ****     {
 177:../../libDaisy//src/hid/midi.h ****         transport_.StartRx(MidiHandler::ParseCallback, this);
 178:../../libDaisy//src/hid/midi.h ****     }
 179:../../libDaisy//src/hid/midi.h **** 
 180:../../libDaisy//src/hid/midi.h ****     /** Start listening */
 181:../../libDaisy//src/hid/midi.h ****     void Listen()
 182:../../libDaisy//src/hid/midi.h ****     {
 183:../../libDaisy//src/hid/midi.h ****         // In case of UART Error, (particularly
 184:../../libDaisy//src/hid/midi.h ****         //  overrun error), UART disables itself.
 185:../../libDaisy//src/hid/midi.h ****         // Flush the buff, and restart.
 186:../../libDaisy//src/hid/midi.h ****         if(!transport_.RxActive())
 187:../../libDaisy//src/hid/midi.h ****         {
 188:../../libDaisy//src/hid/midi.h ****             parser_.Reset();
 189:../../libDaisy//src/hid/midi.h ****             transport_.FlushRx();
 190:../../libDaisy//src/hid/midi.h ****             StartReceive();
 191:../../libDaisy//src/hid/midi.h ****         }
 192:../../libDaisy//src/hid/midi.h ****     }
 193:../../libDaisy//src/hid/midi.h **** 
 194:../../libDaisy//src/hid/midi.h ****     /** Checks if there are unhandled messages in the queue
 195:../../libDaisy//src/hid/midi.h ****     \return True if there are events to be handled, else false.
 196:../../libDaisy//src/hid/midi.h ****      */
 197:../../libDaisy//src/hid/midi.h ****     bool HasEvents() const { return event_q_.GetNumElements() > 0; }
 198:../../libDaisy//src/hid/midi.h **** 
 199:../../libDaisy//src/hid/midi.h **** 
 200:../../libDaisy//src/hid/midi.h ****     /** Pops the oldest unhandled MidiEvent from the internal queue
 201:../../libDaisy//src/hid/midi.h ****     \return The event to be handled
 202:../../libDaisy//src/hid/midi.h ****      */
 203:../../libDaisy//src/hid/midi.h ****     MidiEvent PopEvent() { return event_q_.PopFront(); }
 204:../../libDaisy//src/hid/midi.h **** 
 205:../../libDaisy//src/hid/midi.h ****     /** SendMessage
 206:../../libDaisy//src/hid/midi.h ****     Send raw bytes as message
 207:../../libDaisy//src/hid/midi.h ****     */
 208:../../libDaisy//src/hid/midi.h ****     void SendMessage(uint8_t* bytes, size_t size)
 209:../../libDaisy//src/hid/midi.h ****     {
 210:../../libDaisy//src/hid/midi.h ****         transport_.Tx(bytes, size);
 211:../../libDaisy//src/hid/midi.h ****     }
 212:../../libDaisy//src/hid/midi.h **** 
 213:../../libDaisy//src/hid/midi.h ****     /** Feed in bytes to parser state machine from an external source.
 214:../../libDaisy//src/hid/midi.h ****         Populates internal FIFO queue with MIDI Messages.
 215:../../libDaisy//src/hid/midi.h **** 
 216:../../libDaisy//src/hid/midi.h ****         \note  Normally application code won't need to use this method directly.
 217:../../libDaisy//src/hid/midi.h ****         \param byte MIDI byte to be parsed
 218:../../libDaisy//src/hid/midi.h ****     */
 219:../../libDaisy//src/hid/midi.h ****     void Parse(uint8_t byte)
 220:../../libDaisy//src/hid/midi.h ****     {
 221:../../libDaisy//src/hid/midi.h ****         MidiEvent event;
 222:../../libDaisy//src/hid/midi.h ****         if(parser_.Parse(byte, &event))
 223:../../libDaisy//src/hid/midi.h ****         {
 224:../../libDaisy//src/hid/midi.h ****             event_q_.PushBack(event);
ARM GAS  C:\Users\evang\AppData\Local\Temp\ccUReI4Z.s 			page 37


 225:../../libDaisy//src/hid/midi.h ****         }
 226:../../libDaisy//src/hid/midi.h ****     }
 227:../../libDaisy//src/hid/midi.h **** 
 228:../../libDaisy//src/hid/midi.h ****   private:
 229:../../libDaisy//src/hid/midi.h ****     Config               config_;
 230:../../libDaisy//src/hid/midi.h ****     Transport            transport_;
 231:../../libDaisy//src/hid/midi.h ****     MidiParser           parser_;
 232:../../libDaisy//src/hid/midi.h ****     FIFO<MidiEvent, 256> event_q_;
 233:../../libDaisy//src/hid/midi.h **** 
 234:../../libDaisy//src/hid/midi.h ****     static void ParseCallback(uint8_t* data, size_t size, void* context)
 373              		.loc 12 234 17 is_stmt 1 view -0
 374              		.cfi_startproc
 375              		@ args = 0, pretend = 0, frame = 144
 376              		@ frame_needed = 0, uses_anonymous_args = 0
 377              	.LBB634:
 235:../../libDaisy//src/hid/midi.h ****     {
 236:../../libDaisy//src/hid/midi.h ****         MidiHandler* handler = reinterpret_cast<MidiHandler*>(context);
 237:../../libDaisy//src/hid/midi.h ****         for(size_t i = 0; i < size; i++)
 378              		.loc 12 237 29 view .LVU54
 379 0000 B9B3     		cbz	r1, .L23
 380 0002 0144     		add	r1, r1, r0
 381              	.LVL18:
 382              		.loc 12 237 29 is_stmt 0 view .LVU55
 383              	.LBE634:
 234:../../libDaisy//src/hid/midi.h ****     {
 384              		.loc 12 234 17 view .LVU56
 385 0004 F0B5     		push	{r4, r5, r6, r7, lr}
 386              		.cfi_def_cfa_offset 20
 387              		.cfi_offset 4, -20
 388              		.cfi_offset 5, -16
 389              		.cfi_offset 6, -12
 390              		.cfi_offset 7, -8
 391              		.cfi_offset 14, -4
 392 0006 1546     		mov	r5, r2
 393 0008 A5B0     		sub	sp, sp, #148
 394              		.cfi_def_cfa_offset 168
 395              	.LBB653:
 396              	.LBB635:
 397              	.LBB636:
 222:../../libDaisy//src/hid/midi.h ****         {
 398              		.loc 12 222 25 view .LVU57
 399 000a 02F10807 		add	r7, r2, #8
 400 000e 441E     		subs	r4, r0, #1
 401 0010 4E1E     		subs	r6, r1, #1
 402 0012 01E0     		b	.L21
 403              	.LVL19:
 404              	.L16:
 222:../../libDaisy//src/hid/midi.h ****         {
 405              		.loc 12 222 25 view .LVU58
 406              	.LBE636:
 407              	.LBE635:
 408              		.loc 12 237 9 is_stmt 1 view .LVU59
 409              		.loc 12 237 29 view .LVU60
 410 0014 A642     		cmp	r6, r4
 411 0016 2AD0     		beq	.L26
 412              	.LVL20:
 413              	.L21:
ARM GAS  C:\Users\evang\AppData\Local\Temp\ccUReI4Z.s 			page 38


 414              	.LBB652:
 415              	.LBI635:
 219:../../libDaisy//src/hid/midi.h ****     {
 416              		.loc 12 219 10 discriminator 2 view .LVU61
 417              	.LBB651:
 222:../../libDaisy//src/hid/midi.h ****         {
 418              		.loc 12 222 25 is_stmt 0 discriminator 2 view .LVU62
 419 0018 14F8011F 		ldrb	r1, [r4, #1]!	@ zero_extendqisi2
 420              	.LVL21:
 222:../../libDaisy//src/hid/midi.h ****         {
 421              		.loc 12 222 25 discriminator 2 view .LVU63
 422 001c 6A46     		mov	r2, sp
 423 001e 3846     		mov	r0, r7
 424 0020 FFF7FEFF 		bl	_ZN5daisy10MidiParser5ParseEhPNS_9MidiEventE
 425              	.LVL22:
 222:../../libDaisy//src/hid/midi.h ****         {
 426              		.loc 12 222 9 discriminator 2 view .LVU64
 427 0024 0028     		cmp	r0, #0
 428 0026 F5D0     		beq	.L16
 429              	.LVL23:
 430              	.LBB637:
 431              	.LBI637:
  49:../../libDaisy//src/util/FIFO.h ****     {
 432              		.loc 13 49 10 is_stmt 1 view .LVU65
 433              	.LBB638:
 434              	.LBB639:
 435              	.LBI639:
 168:../../libDaisy//src/util/FIFO.h **** 
 436              		.loc 13 168 10 view .LVU66
 437              	.LBB640:
 438              	.LBB641:
 439              	.LBI641:
 171:../../libDaisy//src/util/FIFO.h ****     {
 440              		.loc 13 171 12 view .LVU67
 441              	.LBB642:
 175:../../libDaisy//src/util/FIFO.h ****         return size_t(numElements);
 442              		.loc 13 175 28 is_stmt 0 view .LVU68
 443 0028 D5F8A8C0 		ldr	ip, [r5, #168]
 444              	.LBE642:
 445              	.LBE641:
 446              	.LBE640:
 447              	.LBE639:
  53:../../libDaisy//src/util/FIFO.h ****             if(bufferIn_ >= bufferSize_)
 448              		.loc 13 53 13 view .LVU69
 449 002c 9022     		movs	r2, #144
 450 002e 6946     		mov	r1, sp
 451              	.LBB649:
 452              	.LBB647:
 453              	.LBB645:
 454              	.LBB643:
 173:../../libDaisy//src/util/FIFO.h ****         if(numElements < 0)
 455              		.loc 13 173 41 view .LVU70
 456 0030 D5E92B03 		ldrd	r0, r3, [r5, #172]
 457              	.LVL24:
 174:../../libDaisy//src/util/FIFO.h ****             numElements += bufferSize_;
 458              		.loc 13 174 9 view .LVU71
 459 0034 C31A     		subs	r3, r0, r3
ARM GAS  C:\Users\evang\AppData\Local\Temp\ccUReI4Z.s 			page 39


 460              	.LVL25:
 174:../../libDaisy//src/util/FIFO.h ****             numElements += bufferSize_;
 461              		.loc 13 174 9 view .LVU72
 462              	.LBE643:
 463              	.LBE645:
 464              	.LBE647:
 465              	.LBE649:
  53:../../libDaisy//src/util/FIFO.h ****             if(bufferIn_ >= bufferSize_)
 466              		.loc 13 53 13 view .LVU73
 467 0036 00F1010E 		add	lr, r0, #1
 468 003a 00EBC000 		add	r0, r0, r0, lsl #3
 469              	.LBB650:
 470              	.LBB648:
 471              	.LBB646:
 472              	.LBB644:
 175:../../libDaisy//src/util/FIFO.h ****         return size_t(numElements);
 473              		.loc 13 175 25 view .LVU74
 474 003e 48BF     		it	mi
 475 0040 6344     		addmi	r3, r3, ip
 476              	.LVL26:
 175:../../libDaisy//src/util/FIFO.h ****         return size_t(numElements);
 477              		.loc 13 175 25 view .LVU75
 478              	.LBE644:
 479              	.LBE646:
 168:../../libDaisy//src/util/FIFO.h **** 
 480              		.loc 13 168 66 view .LVU76
 481 0042 0CF1FF3C 		add	ip, ip, #-1
 482              	.LBE648:
 483              	.LBE650:
  51:../../libDaisy//src/util/FIFO.h ****         {
 484              		.loc 13 51 9 view .LVU77
 485 0046 9C45     		cmp	ip, r3
 486 0048 E4D0     		beq	.L16
  53:../../libDaisy//src/util/FIFO.h ****             if(bufferIn_ >= bufferSize_)
 487              		.loc 13 53 13 view .LVU78
 488 004a D5F8A430 		ldr	r3, [r5, #164]
 489 004e C5F8ACE0 		str	lr, [r5, #172]
 490 0052 03EB0010 		add	r0, r3, r0, lsl #4
 491 0056 FFF7FEFF 		bl	memcpy
 492              	.LVL27:
  54:../../libDaisy//src/util/FIFO.h ****                 bufferIn_ -= bufferSize_;
 493              		.loc 13 54 29 view .LVU79
 494 005a D5E92A23 		ldrd	r2, r3, [r5, #168]
  54:../../libDaisy//src/util/FIFO.h ****                 bufferIn_ -= bufferSize_;
 495              		.loc 13 54 13 view .LVU80
 496 005e 9342     		cmp	r3, r2
  55:../../libDaisy//src/util/FIFO.h ****             return true;
 497              		.loc 13 55 27 view .LVU81
 498 0060 A3EB0203 		sub	r3, r3, r2
 499 0064 28BF     		it	cs
 500 0066 C5F8AC30 		strcs	r3, [r5, #172]
 501              	.LVL28:
  55:../../libDaisy//src/util/FIFO.h ****             return true;
 502              		.loc 13 55 27 view .LVU82
 503              	.LBE638:
 504              	.LBE637:
 505              	.LBE651:
ARM GAS  C:\Users\evang\AppData\Local\Temp\ccUReI4Z.s 			page 40


 506              	.LBE652:
 507              		.loc 12 237 9 is_stmt 1 view .LVU83
 508              		.loc 12 237 29 view .LVU84
 509 006a A642     		cmp	r6, r4
 510 006c D4D1     		bne	.L21
 511              	.LVL29:
 512              	.L26:
 513              		.loc 12 237 29 is_stmt 0 view .LVU85
 514              	.LBE653:
 238:../../libDaisy//src/hid/midi.h ****         {
 239:../../libDaisy//src/hid/midi.h ****             handler->Parse(data[i]);
 240:../../libDaisy//src/hid/midi.h ****         }
 241:../../libDaisy//src/hid/midi.h ****     }
 515              		.loc 12 241 5 view .LVU86
 516 006e 25B0     		add	sp, sp, #148
 517              		.cfi_def_cfa_offset 20
 518              		@ sp needed
 519 0070 F0BD     		pop	{r4, r5, r6, r7, pc}
 520              	.LVL30:
 521              	.L23:
 522              		.cfi_def_cfa_offset 0
 523              		.cfi_restore 4
 524              		.cfi_restore 5
 525              		.cfi_restore 6
 526              		.cfi_restore 7
 527              		.cfi_restore 14
 528              		.loc 12 241 5 view .LVU87
 529 0072 7047     		bx	lr
 530              		.cfi_endproc
 531              	.LFE5229:
 533              		.section	.text._Z13AudioCallbackPKfPfj,"ax",%progbits
 534              		.align	1
 535              		.p2align 2,,3
 536              		.global	_Z13AudioCallbackPKfPfj
 537              		.syntax unified
 538              		.thumb
 539              		.thumb_func
 540              		.fpu fpv5-d16
 542              	_Z13AudioCallbackPKfPfj:
 543              	.LVL31:
 544              	.LFB4709:
 545              		.file 16 "MiniSynth.cpp"
   1:MiniSynth.cpp **** #include "daisy_seed.h"
   2:MiniSynth.cpp **** #include "daisysp.h"
   3:MiniSynth.cpp **** #include "dev/oled_ssd130x.h"
   4:MiniSynth.cpp **** 
   5:MiniSynth.cpp **** using namespace daisy;
   6:MiniSynth.cpp **** using namespace daisy::seed;
   7:MiniSynth.cpp **** using namespace daisysp;
   8:MiniSynth.cpp **** 
   9:MiniSynth.cpp **** //  Hardware & MIDI 
  10:MiniSynth.cpp **** DaisySeed            hw;
  11:MiniSynth.cpp **** MidiUsbHandler       midi;
  12:MiniSynth.cpp **** 
  13:MiniSynth.cpp **** //  Synth Parts 
  14:MiniSynth.cpp **** Oscillator           osc;      // primary saw
  15:MiniSynth.cpp **** Oscillator           osc2;     // detuned saw
ARM GAS  C:\Users\evang\AppData\Local\Temp\ccUReI4Z.s 			page 41


  16:MiniSynth.cpp **** Svf                  filter;
  17:MiniSynth.cpp **** AdEnv                env;
  18:MiniSynth.cpp **** 
  19:MiniSynth.cpp **** //  Display Copies 
  20:MiniSynth.cpp **** float display_cutoff      = 0.f;
  21:MiniSynth.cpp **** float display_q           = 0.f;
  22:MiniSynth.cpp **** float display_env_amt     = 0.f;
  23:MiniSynth.cpp **** float display_detune_cents= 0.f;
  24:MiniSynth.cpp **** 
  25:MiniSynth.cpp **** //  RealTime Params 
  26:MiniSynth.cpp **** int   current_note   = -1;
  27:MiniSynth.cpp **** float cutoff         = 0.f;
  28:MiniSynth.cpp **** float q              = 0.f;
  29:MiniSynth.cpp **** float env_mod_amount = 0.f;
  30:MiniSynth.cpp **** float detune_cents   = 0.f;
  31:MiniSynth.cpp **** 
  32:MiniSynth.cpp **** //  OLED  
  33:MiniSynth.cpp **** OledDisplay<SSD130xI2c128x64Driver> display;
  34:MiniSynth.cpp **** 
  35:MiniSynth.cpp **** //  Smoothed Display Ints 
  36:MiniSynth.cpp **** static int  last_cut_i = -1;
  37:MiniSynth.cpp **** static int  last_env_i = -1;
  38:MiniSynth.cpp **** static int last_q_int  = -1;
  39:MiniSynth.cpp **** static int last_note = -2;
  40:MiniSynth.cpp **** 
  41:MiniSynth.cpp **** 
  42:MiniSynth.cpp **** //  Envelope State 
  43:MiniSynth.cpp **** enum EnvStage { ENV_IDLE, ENV_ATTACK, ENV_HOLD, ENV_DECAY };
  44:MiniSynth.cpp **** EnvStage current_stage = ENV_IDLE;
  45:MiniSynth.cpp **** float env_out = 0.0f;
  46:MiniSynth.cpp **** 
  47:MiniSynth.cpp **** // MIDI Note Display
  48:MiniSynth.cpp **** static const char* noteNames[12] = {
  49:MiniSynth.cpp **** 	"C", "C#", "D", "D#", "E", "F",
  50:MiniSynth.cpp **** 	"F#", "G", "G#", "A", "A#", "B"
  51:MiniSynth.cpp ****   };
  52:MiniSynth.cpp **** 
  53:MiniSynth.cpp **** // Per Sample Function
  54:MiniSynth.cpp **** void AudioCallback(AudioHandle::InterleavingInputBuffer in,
  55:MiniSynth.cpp ****                    AudioHandle::InterleavingOutputBuffer out,
  56:MiniSynth.cpp ****                    size_t size)
  57:MiniSynth.cpp **** {
 546              		.loc 16 57 1 is_stmt 1 view -0
 547              		.cfi_startproc
 548              		@ args = 0, pretend = 0, frame = 8
 549              		@ frame_needed = 0, uses_anonymous_args = 0
  58:MiniSynth.cpp ****     float filtered;
 550              		.loc 16 58 5 view .LVU89
  59:MiniSynth.cpp **** 
  60:MiniSynth.cpp ****     // Read knobs
  61:MiniSynth.cpp ****     float cutoff_pot 		= hw.adc.GetFloat(0); 	// A0
 551              		.loc 16 61 5 view .LVU90
  57:MiniSynth.cpp ****     float filtered;
 552              		.loc 16 57 1 is_stmt 0 view .LVU91
 553 0000 2DE9F047 		push	{r4, r5, r6, r7, r8, r9, r10, lr}
 554              		.cfi_def_cfa_offset 32
 555              		.cfi_offset 4, -32
ARM GAS  C:\Users\evang\AppData\Local\Temp\ccUReI4Z.s 			page 42


 556              		.cfi_offset 5, -28
 557              		.cfi_offset 6, -24
 558              		.cfi_offset 7, -20
 559              		.cfi_offset 8, -16
 560              		.cfi_offset 9, -12
 561              		.cfi_offset 10, -8
 562              		.cfi_offset 14, -4
 563              		.loc 16 61 41 view .LVU92
 564 0004 A548     		ldr	r0, .L47
 565              	.LVL32:
  57:MiniSynth.cpp ****     float filtered;
 566              		.loc 16 57 1 view .LVU93
 567 0006 0C46     		mov	r4, r1
 568              		.loc 16 61 41 view .LVU94
 569 0008 0021     		movs	r1, #0
 570              	.LVL33:
  57:MiniSynth.cpp ****     float filtered;
 571              		.loc 16 57 1 view .LVU95
 572 000a 1546     		mov	r5, r2
  62:MiniSynth.cpp ****     float q_pot  			= hw.adc.GetFloat(1); 	// A1
  63:MiniSynth.cpp **** 	float env_amt 			= hw.adc.GetFloat(2); 	// A2
  64:MiniSynth.cpp **** 	float det_pot 			= hw.adc.GetFloat(3);
  65:MiniSynth.cpp ****     
  66:MiniSynth.cpp **** 	//--- POT MAPS ---//
  67:MiniSynth.cpp **** 	// Cutoff (Log)
  68:MiniSynth.cpp **** 	float minFc = 40.f;
  69:MiniSynth.cpp **** 	float maxFc = 10000.f;
  70:MiniSynth.cpp **** 	cutoff = minFc * powf(maxFc/minFc, cutoff_pot);
  71:MiniSynth.cpp **** 	
  72:MiniSynth.cpp **** 	// Resonance
  73:MiniSynth.cpp **** 	q      					= fmap(q_pot, 0.1f, 1.5f);
  74:MiniSynth.cpp **** 	
  75:MiniSynth.cpp **** 	// Filter Mod (Env)
  76:MiniSynth.cpp **** 	env_mod_amount			= fmap(env_amt, 0.f, 4000.f); // max mod depth (Hz)
  77:MiniSynth.cpp **** 
  78:MiniSynth.cpp **** 	// Detune 
  79:MiniSynth.cpp **** 	detune_cents 			= fmap(det_pot, -50.f, 50.f);
  80:MiniSynth.cpp **** 
  81:MiniSynth.cpp **** 	// Make display-safe copies
  82:MiniSynth.cpp **** 	display_cutoff 			= cutoff;
  83:MiniSynth.cpp **** 	display_q 				= q;
  84:MiniSynth.cpp **** 	display_env_amt 		= env_mod_amount;
  85:MiniSynth.cpp **** 	display_detune_cents	= detune_cents;
  86:MiniSynth.cpp **** 
  87:MiniSynth.cpp **** 	// Compute final cutoff
  88:MiniSynth.cpp **** 	float mod_cutoff = cutoff + (env_out * env_mod_amount);
  89:MiniSynth.cpp **** 	mod_cutoff = fclamp(mod_cutoff, 20.f, 18000.f);
  90:MiniSynth.cpp **** 	
  91:MiniSynth.cpp **** 	// Just in case
  92:MiniSynth.cpp **** 	float midi_base  = 36.0f;
  93:MiniSynth.cpp **** 
  94:MiniSynth.cpp ****     if (current_note >= 0)
 573              		.loc 16 94 22 view .LVU96
 574 000c DFF8FC92 		ldr	r9, .L47+112
  88:MiniSynth.cpp **** 	mod_cutoff = fclamp(mod_cutoff, 20.f, 18000.f);
 575              		.loc 16 88 39 view .LVU97
 576 0010 DFF8FC82 		ldr	r8, .L47+116
ARM GAS  C:\Users\evang\AppData\Local\Temp\ccUReI4Z.s 			page 43


  73:MiniSynth.cpp **** 	
 577              		.loc 16 73 14 view .LVU98
 578 0014 DFF8FCA2 		ldr	r10, .L47+120
  79:MiniSynth.cpp **** 
 579              		.loc 16 79 18 view .LVU99
 580 0018 A14F     		ldr	r7, .L47+4
  57:MiniSynth.cpp ****     float filtered;
 581              		.loc 16 57 1 view .LVU100
 582 001a 2DED048B 		vpush.64	{d8, d9}
 583              		.cfi_def_cfa_offset 48
 584              		.cfi_offset 80, -48
 585              		.cfi_offset 81, -44
 586              		.cfi_offset 82, -40
 587              		.cfi_offset 83, -36
 588 001e 82B0     		sub	sp, sp, #8
 589              		.cfi_def_cfa_offset 56
  61:MiniSynth.cpp ****     float q_pot  			= hw.adc.GetFloat(1); 	// A1
 590              		.loc 16 61 41 view .LVU101
 591 0020 FFF7FEFF 		bl	_ZNK5daisy9AdcHandle8GetFloatEh
 592              	.LVL34:
  62:MiniSynth.cpp **** 	float env_amt 			= hw.adc.GetFloat(2); 	// A2
 593              		.loc 16 62 38 view .LVU102
 594 0024 0121     		movs	r1, #1
 595 0026 9D48     		ldr	r0, .L47
  61:MiniSynth.cpp ****     float q_pot  			= hw.adc.GetFloat(1); 	// A1
 596              		.loc 16 61 41 view .LVU103
 597 0028 8DED010A 		vstr.32	s0, [sp, #4]	@ int
 598              	.LVL35:
  62:MiniSynth.cpp **** 	float env_amt 			= hw.adc.GetFloat(2); 	// A2
 599              		.loc 16 62 5 is_stmt 1 view .LVU104
  62:MiniSynth.cpp **** 	float env_amt 			= hw.adc.GetFloat(2); 	// A2
 600              		.loc 16 62 38 is_stmt 0 view .LVU105
 601 002c FFF7FEFF 		bl	_ZNK5daisy9AdcHandle8GetFloatEh
 602              	.LVL36:
  63:MiniSynth.cpp **** 	float det_pot 			= hw.adc.GetFloat(3);
 603              		.loc 16 63 36 view .LVU106
 604 0030 0221     		movs	r1, #2
 605 0032 9A48     		ldr	r0, .L47
  62:MiniSynth.cpp **** 	float env_amt 			= hw.adc.GetFloat(2); 	// A2
 606              		.loc 16 62 38 view .LVU107
 607 0034 F0EE408A 		vmov.f32	s17, s0
 608              	.LVL37:
  63:MiniSynth.cpp **** 	float det_pot 			= hw.adc.GetFloat(3);
 609              		.loc 16 63 2 is_stmt 1 view .LVU108
  63:MiniSynth.cpp **** 	float det_pot 			= hw.adc.GetFloat(3);
 610              		.loc 16 63 36 is_stmt 0 view .LVU109
 611 0038 FFF7FEFF 		bl	_ZNK5daisy9AdcHandle8GetFloatEh
 612              	.LVL38:
  64:MiniSynth.cpp ****     
 613              		.loc 16 64 36 view .LVU110
 614 003c 0321     		movs	r1, #3
 615 003e 9748     		ldr	r0, .L47
  63:MiniSynth.cpp **** 	float det_pot 			= hw.adc.GetFloat(3);
 616              		.loc 16 63 36 view .LVU111
 617 0040 B0EE409A 		vmov.f32	s18, s0
 618              	.LVL39:
  64:MiniSynth.cpp ****     
ARM GAS  C:\Users\evang\AppData\Local\Temp\ccUReI4Z.s 			page 44


 619              		.loc 16 64 2 is_stmt 1 view .LVU112
  64:MiniSynth.cpp ****     
 620              		.loc 16 64 36 is_stmt 0 view .LVU113
 621 0044 FFF7FEFF 		bl	_ZNK5daisy9AdcHandle8GetFloatEh
 622              	.LVL40:
  70:MiniSynth.cpp **** 	
 623              		.loc 16 70 23 view .LVU114
 624 0048 DDED010A 		vldr.32	s1, [sp, #4]	@ int
  64:MiniSynth.cpp ****     
 625              		.loc 16 64 36 view .LVU115
 626 004c B0EE408A 		vmov.f32	s16, s0
  70:MiniSynth.cpp **** 	
 627              		.loc 16 70 23 view .LVU116
 628 0050 9FED940A 		vldr.32	s0, .L47+8
 629              	.LVL41:
  68:MiniSynth.cpp **** 	float maxFc = 10000.f;
 630              		.loc 16 68 2 is_stmt 1 view .LVU117
  69:MiniSynth.cpp **** 	cutoff = minFc * powf(maxFc/minFc, cutoff_pot);
 631              		.loc 16 69 2 view .LVU118
  70:MiniSynth.cpp **** 	
 632              		.loc 16 70 2 view .LVU119
  70:MiniSynth.cpp **** 	
 633              		.loc 16 70 23 is_stmt 0 view .LVU120
 634 0054 FFF7FEFF 		bl	powf
 635              	.LVL42:
  70:MiniSynth.cpp **** 	
 636              		.loc 16 70 17 view .LVU121
 637 0058 9FED936A 		vldr.32	s12, .L47+12
 638              	.LBB702:
 639              	.LBB703:
 640              		.file 17 "../../DaisySP//Source/Utility/dsp.h"
   1:../../DaisySP//Source/Utility/dsp.h **** /*
   2:../../DaisySP//Source/Utility/dsp.h **** Copyright (c) 2020 Electrosmith, Corp, Emilie Gillet
   3:../../DaisySP//Source/Utility/dsp.h **** 
   4:../../DaisySP//Source/Utility/dsp.h **** Use of this source code is governed by an MIT-style
   5:../../DaisySP//Source/Utility/dsp.h **** license that can be found in the LICENSE file or at
   6:../../DaisySP//Source/Utility/dsp.h **** https://opensource.org/licenses/MIT.
   7:../../DaisySP//Source/Utility/dsp.h **** */
   8:../../DaisySP//Source/Utility/dsp.h **** 
   9:../../DaisySP//Source/Utility/dsp.h **** /** Helpful defines, functions, and other utilities for use in/with daisysp modules.
  10:../../DaisySP//Source/Utility/dsp.h **** */
  11:../../DaisySP//Source/Utility/dsp.h **** #pragma once
  12:../../DaisySP//Source/Utility/dsp.h **** #ifndef DSY_CORE_DSP
  13:../../DaisySP//Source/Utility/dsp.h **** #define DSY_CORE_DSP
  14:../../DaisySP//Source/Utility/dsp.h **** #include <cassert>
  15:../../DaisySP//Source/Utility/dsp.h **** #include <cstdint>
  16:../../DaisySP//Source/Utility/dsp.h **** #include <random>
  17:../../DaisySP//Source/Utility/dsp.h **** #include <cmath>
  18:../../DaisySP//Source/Utility/dsp.h **** 
  19:../../DaisySP//Source/Utility/dsp.h **** /** PIs
  20:../../DaisySP//Source/Utility/dsp.h **** */
  21:../../DaisySP//Source/Utility/dsp.h **** #define PI_F 3.1415927410125732421875f
  22:../../DaisySP//Source/Utility/dsp.h **** #define TWOPI_F (2.0f * PI_F)
  23:../../DaisySP//Source/Utility/dsp.h **** #define HALFPI_F (PI_F * 0.5f)
  24:../../DaisySP//Source/Utility/dsp.h **** #define DSY_MIN(in, mn) (in < mn ? in : mn)
  25:../../DaisySP//Source/Utility/dsp.h **** #define DSY_MAX(in, mx) (in > mx ? in : mx)
  26:../../DaisySP//Source/Utility/dsp.h **** #define DSY_CLAMP(in, mn, mx) (DSY_MIN(DSY_MAX(in, mn), mx))
ARM GAS  C:\Users\evang\AppData\Local\Temp\ccUReI4Z.s 			page 45


  27:../../DaisySP//Source/Utility/dsp.h **** #define DSY_COUNTOF(_arr) (sizeof(_arr) / sizeof(_arr[0]))
  28:../../DaisySP//Source/Utility/dsp.h **** 
  29:../../DaisySP//Source/Utility/dsp.h **** namespace daisysp
  30:../../DaisySP//Source/Utility/dsp.h **** {
  31:../../DaisySP//Source/Utility/dsp.h **** //Avoids division for random floats. e.g. rand() * kRandFrac
  32:../../DaisySP//Source/Utility/dsp.h **** static constexpr float kRandFrac = 1.f / (float)RAND_MAX;
  33:../../DaisySP//Source/Utility/dsp.h **** 
  34:../../DaisySP//Source/Utility/dsp.h **** //Convert from semitones to other units. e.g. 2 ^ (kOneTwelfth * x)
  35:../../DaisySP//Source/Utility/dsp.h **** static constexpr float kOneTwelfth = 1.f / 12.f;
  36:../../DaisySP//Source/Utility/dsp.h **** 
  37:../../DaisySP//Source/Utility/dsp.h **** /** efficient floating point min/max
  38:../../DaisySP//Source/Utility/dsp.h **** c/o stephen mccaul
  39:../../DaisySP//Source/Utility/dsp.h **** */
  40:../../DaisySP//Source/Utility/dsp.h **** inline float fmax(float a, float b)
  41:../../DaisySP//Source/Utility/dsp.h **** {
  42:../../DaisySP//Source/Utility/dsp.h ****     float r;
  43:../../DaisySP//Source/Utility/dsp.h **** #ifdef __arm__
  44:../../DaisySP//Source/Utility/dsp.h ****     asm("vmaxnm.f32 %[d], %[n], %[m]" : [d] "=t"(r) : [n] "t"(a), [m] "t"(b) :);
  45:../../DaisySP//Source/Utility/dsp.h **** #else
  46:../../DaisySP//Source/Utility/dsp.h ****     r = (a > b) ? a : b;
  47:../../DaisySP//Source/Utility/dsp.h **** #endif // __arm__
  48:../../DaisySP//Source/Utility/dsp.h ****     return r;
  49:../../DaisySP//Source/Utility/dsp.h **** }
  50:../../DaisySP//Source/Utility/dsp.h **** 
  51:../../DaisySP//Source/Utility/dsp.h **** inline float fmin(float a, float b)
  52:../../DaisySP//Source/Utility/dsp.h **** {
  53:../../DaisySP//Source/Utility/dsp.h ****     float r;
  54:../../DaisySP//Source/Utility/dsp.h **** #ifdef __arm__
  55:../../DaisySP//Source/Utility/dsp.h ****     asm("vminnm.f32 %[d], %[n], %[m]" : [d] "=t"(r) : [n] "t"(a), [m] "t"(b) :);
  56:../../DaisySP//Source/Utility/dsp.h **** #else
  57:../../DaisySP//Source/Utility/dsp.h ****     r = (a < b) ? a : b;
  58:../../DaisySP//Source/Utility/dsp.h **** #endif // __arm__
  59:../../DaisySP//Source/Utility/dsp.h ****     return r;
  60:../../DaisySP//Source/Utility/dsp.h **** }
  61:../../DaisySP//Source/Utility/dsp.h **** 
  62:../../DaisySP//Source/Utility/dsp.h **** /** quick fp clamp
  63:../../DaisySP//Source/Utility/dsp.h **** */
  64:../../DaisySP//Source/Utility/dsp.h **** inline float fclamp(float in, float min, float max)
  65:../../DaisySP//Source/Utility/dsp.h **** {
  66:../../DaisySP//Source/Utility/dsp.h ****     return fmin(fmax(in, min), max);
  67:../../DaisySP//Source/Utility/dsp.h **** }
  68:../../DaisySP//Source/Utility/dsp.h **** 
  69:../../DaisySP//Source/Utility/dsp.h **** /** From Musicdsp.org "Fast power and root estimates for 32bit floats)
  70:../../DaisySP//Source/Utility/dsp.h **** Original code by Stefan Stenzel
  71:../../DaisySP//Source/Utility/dsp.h **** These are approximations
  72:../../DaisySP//Source/Utility/dsp.h **** */
  73:../../DaisySP//Source/Utility/dsp.h **** inline float fastpower(float f, int n)
  74:../../DaisySP//Source/Utility/dsp.h **** {
  75:../../DaisySP//Source/Utility/dsp.h ****     long *lp, l;
  76:../../DaisySP//Source/Utility/dsp.h ****     lp = (long *)(&f);
  77:../../DaisySP//Source/Utility/dsp.h ****     l  = *lp;
  78:../../DaisySP//Source/Utility/dsp.h ****     l -= 0x3F800000;
  79:../../DaisySP//Source/Utility/dsp.h ****     l <<= (n - 1);
  80:../../DaisySP//Source/Utility/dsp.h ****     l += 0x3F800000;
  81:../../DaisySP//Source/Utility/dsp.h ****     *lp = l;
  82:../../DaisySP//Source/Utility/dsp.h ****     return f;
  83:../../DaisySP//Source/Utility/dsp.h **** }
ARM GAS  C:\Users\evang\AppData\Local\Temp\ccUReI4Z.s 			page 46


  84:../../DaisySP//Source/Utility/dsp.h **** 
  85:../../DaisySP//Source/Utility/dsp.h **** inline float fastroot(float f, int n)
  86:../../DaisySP//Source/Utility/dsp.h **** {
  87:../../DaisySP//Source/Utility/dsp.h ****     long *lp, l;
  88:../../DaisySP//Source/Utility/dsp.h ****     lp = (long *)(&f);
  89:../../DaisySP//Source/Utility/dsp.h ****     l  = *lp;
  90:../../DaisySP//Source/Utility/dsp.h ****     l -= 0x3F800000;
  91:../../DaisySP//Source/Utility/dsp.h ****     l >>= (n - 1);
  92:../../DaisySP//Source/Utility/dsp.h ****     l += 0x3F800000;
  93:../../DaisySP//Source/Utility/dsp.h ****     *lp = l;
  94:../../DaisySP//Source/Utility/dsp.h ****     return f;
  95:../../DaisySP//Source/Utility/dsp.h **** }
  96:../../DaisySP//Source/Utility/dsp.h **** 
  97:../../DaisySP//Source/Utility/dsp.h **** /** Significantly more efficient than fmodf(x, 1.0f) for calculating
  98:../../DaisySP//Source/Utility/dsp.h ****  *  the decimal part of a floating point value.
  99:../../DaisySP//Source/Utility/dsp.h ****  */
 100:../../DaisySP//Source/Utility/dsp.h **** inline float fastmod1f(float x)
 101:../../DaisySP//Source/Utility/dsp.h **** {
 102:../../DaisySP//Source/Utility/dsp.h ****     return x - static_cast<int>(x);
 103:../../DaisySP//Source/Utility/dsp.h **** }
 104:../../DaisySP//Source/Utility/dsp.h **** 
 105:../../DaisySP//Source/Utility/dsp.h **** /** From http://openaudio.blogspot.com/2017/02/faster-log10-and-pow.html
 106:../../DaisySP//Source/Utility/dsp.h **** No approximation, pow10f(x) gives a 90% speed increase over powf(10.f, x)
 107:../../DaisySP//Source/Utility/dsp.h **** */
 108:../../DaisySP//Source/Utility/dsp.h **** inline float pow10f(float f)
 109:../../DaisySP//Source/Utility/dsp.h **** {
 110:../../DaisySP//Source/Utility/dsp.h ****     return expf(2.302585092994046f * f);
 111:../../DaisySP//Source/Utility/dsp.h **** }
 112:../../DaisySP//Source/Utility/dsp.h **** 
 113:../../DaisySP//Source/Utility/dsp.h **** /* Original code for fastlog2f by Dr. Paul Beckmann from the ARM community forum, adapted from the 
 114:../../DaisySP//Source/Utility/dsp.h **** About 25% performance increase over std::log10f
 115:../../DaisySP//Source/Utility/dsp.h **** */
 116:../../DaisySP//Source/Utility/dsp.h **** inline float fastlog2f(float f)
 117:../../DaisySP//Source/Utility/dsp.h **** {
 118:../../DaisySP//Source/Utility/dsp.h ****     float frac;
 119:../../DaisySP//Source/Utility/dsp.h ****     int   exp;
 120:../../DaisySP//Source/Utility/dsp.h ****     frac = frexpf(fabsf(f), &exp);
 121:../../DaisySP//Source/Utility/dsp.h ****     f    = 1.23149591368684f;
 122:../../DaisySP//Source/Utility/dsp.h ****     f *= frac;
 123:../../DaisySP//Source/Utility/dsp.h ****     f += -4.11852516267426f;
 124:../../DaisySP//Source/Utility/dsp.h ****     f *= frac;
 125:../../DaisySP//Source/Utility/dsp.h ****     f += 6.02197014179219f;
 126:../../DaisySP//Source/Utility/dsp.h ****     f *= frac;
 127:../../DaisySP//Source/Utility/dsp.h ****     f += -3.13396450166353f;
 128:../../DaisySP//Source/Utility/dsp.h ****     f += exp;
 129:../../DaisySP//Source/Utility/dsp.h ****     return (f);
 130:../../DaisySP//Source/Utility/dsp.h **** }
 131:../../DaisySP//Source/Utility/dsp.h **** 
 132:../../DaisySP//Source/Utility/dsp.h **** inline float fastlog10f(float f)
 133:../../DaisySP//Source/Utility/dsp.h **** {
 134:../../DaisySP//Source/Utility/dsp.h ****     return fastlog2f(f) * 0.3010299956639812f;
 135:../../DaisySP//Source/Utility/dsp.h **** }
 136:../../DaisySP//Source/Utility/dsp.h **** 
 137:../../DaisySP//Source/Utility/dsp.h **** /** Midi to frequency helper
 138:../../DaisySP//Source/Utility/dsp.h **** */
 139:../../DaisySP//Source/Utility/dsp.h **** inline float mtof(float m)
 140:../../DaisySP//Source/Utility/dsp.h **** {
ARM GAS  C:\Users\evang\AppData\Local\Temp\ccUReI4Z.s 			page 47


 141:../../DaisySP//Source/Utility/dsp.h ****     return powf(2, (m - 69.0f) / 12.0f) * 440.0f;
 142:../../DaisySP//Source/Utility/dsp.h **** }
 143:../../DaisySP//Source/Utility/dsp.h **** 
 144:../../DaisySP//Source/Utility/dsp.h **** 
 145:../../DaisySP//Source/Utility/dsp.h **** /** one pole lpf
 146:../../DaisySP//Source/Utility/dsp.h **** out is passed by reference, and must be retained between
 147:../../DaisySP//Source/Utility/dsp.h **** calls to properly filter the signal
 148:../../DaisySP//Source/Utility/dsp.h **** coeff can be calculated:
 149:../../DaisySP//Source/Utility/dsp.h **** coeff = 1.0 / (time * sample_rate) ; where time is in seconds
 150:../../DaisySP//Source/Utility/dsp.h **** */
 151:../../DaisySP//Source/Utility/dsp.h **** inline void fonepole(float &out, float in, float coeff)
 152:../../DaisySP//Source/Utility/dsp.h **** {
 153:../../DaisySP//Source/Utility/dsp.h ****     out += coeff * (in - out);
 154:../../DaisySP//Source/Utility/dsp.h **** }
 155:../../DaisySP//Source/Utility/dsp.h **** 
 156:../../DaisySP//Source/Utility/dsp.h **** /** Curves to use with the fmap function */
 157:../../DaisySP//Source/Utility/dsp.h **** enum class Mapping
 158:../../DaisySP//Source/Utility/dsp.h **** {
 159:../../DaisySP//Source/Utility/dsp.h ****     LINEAR,
 160:../../DaisySP//Source/Utility/dsp.h ****     EXP,
 161:../../DaisySP//Source/Utility/dsp.h ****     LOG,
 162:../../DaisySP//Source/Utility/dsp.h **** };
 163:../../DaisySP//Source/Utility/dsp.h **** 
 164:../../DaisySP//Source/Utility/dsp.h **** /** Maps a float between a specified range, using a specified curve.
 165:../../DaisySP//Source/Utility/dsp.h ****  *
 166:../../DaisySP//Source/Utility/dsp.h ****  *  \param in a value between 0 to 1 that will be mapped to the new range.
 167:../../DaisySP//Source/Utility/dsp.h ****  *  \param min the new minimum value
 168:../../DaisySP//Source/Utility/dsp.h ****  *  \param max the new maxmimum value
 169:../../DaisySP//Source/Utility/dsp.h ****  *  \param curve a Mapping Value to adjust the response curve of the transformation
 170:../../DaisySP//Source/Utility/dsp.h ****  *               defaults to Linear. @see Mapping
 171:../../DaisySP//Source/Utility/dsp.h ****  *
 172:../../DaisySP//Source/Utility/dsp.h ****  *  When using the log curve min and max, must be greater than zero.
 173:../../DaisySP//Source/Utility/dsp.h ****  *
 174:../../DaisySP//Source/Utility/dsp.h ****  *  \retval returns the transformed float within the new range.
 175:../../DaisySP//Source/Utility/dsp.h **** */
 176:../../DaisySP//Source/Utility/dsp.h **** inline float
 177:../../DaisySP//Source/Utility/dsp.h **** fmap(float in, float min, float max, Mapping curve = Mapping::LINEAR)
 178:../../DaisySP//Source/Utility/dsp.h **** {
 179:../../DaisySP//Source/Utility/dsp.h ****     switch(curve)
 180:../../DaisySP//Source/Utility/dsp.h ****     {
 181:../../DaisySP//Source/Utility/dsp.h ****         case Mapping::EXP:
 182:../../DaisySP//Source/Utility/dsp.h ****             return fclamp(min + (in * in) * (max - min), min, max);
 183:../../DaisySP//Source/Utility/dsp.h ****         case Mapping::LOG:
 184:../../DaisySP//Source/Utility/dsp.h ****         {
 185:../../DaisySP//Source/Utility/dsp.h ****             const float a = 1.f / log10f(max / min);
 186:../../DaisySP//Source/Utility/dsp.h ****             return fclamp(min * powf(10, in / a), min, max);
 187:../../DaisySP//Source/Utility/dsp.h ****         }
 188:../../DaisySP//Source/Utility/dsp.h ****         case Mapping::LINEAR:
 189:../../DaisySP//Source/Utility/dsp.h ****         default: return fclamp(min + in * (max - min), min, max);
 641              		.loc 17 189 31 view .LVU122
 642 005c DFED934A 		vldr.32	s9, .L47+16
 643              	.LBE703:
 644              	.LBE702:
 645              	.LBB719:
 646              	.LBB720:
 647              	.LBB721:
 648              	.LBB722:
ARM GAS  C:\Users\evang\AppData\Local\Temp\ccUReI4Z.s 			page 48


 649              	.LBB723:
  55:../../DaisySP//Source/Utility/dsp.h **** #else
 650              		.loc 17 55 5 view .LVU123
 651 0060 F7EE081A 		vmov.f32	s3, #1.5e+0
 652              	.LBE723:
 653              	.LBE722:
 654              	.LBE721:
 655              	.LBE720:
 656              	.LBE719:
  70:MiniSynth.cpp **** 	
 657              		.loc 16 70 17 view .LVU124
 658 0064 20EE066A 		vmul.f32	s12, s0, s12
  70:MiniSynth.cpp **** 	
 659              		.loc 16 70 9 view .LVU125
 660 0068 914B     		ldr	r3, .L47+20
 661              	.LBB742:
 662              	.LBB715:
 663              		.loc 17 189 31 view .LVU126
 664 006a F0EE647A 		vmov.f32	s15, s9
 665 006e 9FED915A 		vldr.32	s10, .L47+24
 666              	.LBE715:
 667              	.LBE742:
 668              	.LBB743:
 669              	.LBB735:
 670 0072 9FED914A 		vldr.32	s8, .L47+28
 671              	.LBE735:
 672              	.LBE743:
 673              	.LBB744:
 674              	.LBB745:
 675              	.LBB746:
  44:../../DaisySP//Source/Utility/dsp.h **** #else
 676              		.loc 17 44 5 view .LVU127
 677 0076 F3EE042A 		vmov.f32	s5, #2.0e+1
 678              	.LBE746:
 679              	.LBE745:
 680              	.LBE744:
  70:MiniSynth.cpp **** 	
 681              		.loc 16 70 9 view .LVU128
 682 007a 83ED006A 		vstr.32	s12, [r3]
  76:MiniSynth.cpp **** 
 683              		.loc 16 76 19 view .LVU129
 684 007e 8F4B     		ldr	r3, .L47+32
 685              	.LBB755:
 686              	.LBB716:
 687              		.loc 17 189 31 view .LVU130
 688 0080 E9EE057A 		vfma.f32	s15, s18, s10
 689              	.LBB704:
 690              	.LBB705:
 691              	.LBB706:
  44:../../DaisySP//Source/Utility/dsp.h **** #else
 692              		.loc 17 44 5 view .LVU131
 693              		.syntax unified
 694              	@ 44 "../../DaisySP//Source/Utility/dsp.h" 1
 695 0084 C7FEA47A 		vmaxnm.f32 s15, s15, s9
 696              	@ 0 "" 2
 697              		.thumb
 698              		.syntax unified
ARM GAS  C:\Users\evang\AppData\Local\Temp\ccUReI4Z.s 			page 49


 699              	.LBE706:
 700              	.LBE705:
 701              	.LBB708:
 702              	.LBB709:
  55:../../DaisySP//Source/Utility/dsp.h **** #else
 703              		.loc 17 55 5 view .LVU132
 704              		.syntax unified
 705              	@ 55 "../../DaisySP//Source/Utility/dsp.h" 1
 706 0088 C7FEC57A 		vminnm.f32 s15, s15, s10
 707              	@ 0 "" 2
 708              		.thumb
 709              		.syntax unified
 710              	.LBE709:
 711              	.LBE708:
 712              	.LBE704:
 713              	.LBE716:
 714              	.LBE755:
  76:MiniSynth.cpp **** 
 715              		.loc 16 76 19 view .LVU133
 716 008c C3ED007A 		vstr.32	s15, [r3]
 717              	.LBB756:
 718              	.LBB736:
 719              		.loc 17 189 31 view .LVU134
 720 0090 F0EE446A 		vmov.f32	s13, s8
 721              	.LBE736:
 722              	.LBE756:
  82:MiniSynth.cpp **** 	display_q 				= q;
 723              		.loc 16 82 20 view .LVU135
 724 0094 8A4B     		ldr	r3, .L47+36
 725              	.LBB757:
 726              	.LBB737:
 727              		.loc 17 189 31 view .LVU136
 728 0096 9FED8B7A 		vldr.32	s14, .L47+40
 729              	.LBE737:
 730              	.LBE757:
  82:MiniSynth.cpp **** 	display_q 				= q;
 731              		.loc 16 82 20 view .LVU137
 732 009a 83ED006A 		vstr.32	s12, [r3]
  83:MiniSynth.cpp **** 	display_env_amt 		= env_mod_amount;
 733              		.loc 16 83 16 view .LVU138
 734 009e 8A4B     		ldr	r3, .L47+44
 735              	.LBB758:
 736              	.LBB738:
 737              		.loc 17 189 31 view .LVU139
 738 00a0 E8EE876A 		vfma.f32	s13, s17, s14
 739              	.LBE738:
 740              	.LBE758:
 741              	.LBB759:
 742              	.LBB760:
 743 00a4 DFED895A 		vldr.32	s11, .L47+48
 744              	.LBE760:
 745              	.LBE759:
 746              	.LBB781:
 747              	.LBB739:
 748              	.LBB732:
 749              	.LBB726:
 750              	.LBB727:
ARM GAS  C:\Users\evang\AppData\Local\Temp\ccUReI4Z.s 			page 50


  44:../../DaisySP//Source/Utility/dsp.h **** #else
 751              		.loc 17 44 5 view .LVU140
 752              		.syntax unified
 753              	@ 44 "../../DaisySP//Source/Utility/dsp.h" 1
 754 00a8 C6FE846A 		vmaxnm.f32 s13, s13, s8
 755              	@ 0 "" 2
 756              		.thumb
 757              		.syntax unified
 758              	.LBE727:
 759              	.LBE726:
 760              	.LBB729:
 761              	.LBB724:
  55:../../DaisySP//Source/Utility/dsp.h **** #else
 762              		.loc 17 55 5 view .LVU141
 763              		.syntax unified
 764              	@ 55 "../../DaisySP//Source/Utility/dsp.h" 1
 765 00ac C6FEE16A 		vminnm.f32 s13, s13, s3
 766              	@ 0 "" 2
 767              		.thumb
 768              		.syntax unified
 769              	.LBE724:
 770              	.LBE729:
 771              	.LBE732:
 772              	.LBE739:
 773              	.LBE781:
  83:MiniSynth.cpp **** 	display_env_amt 		= env_mod_amount;
 774              		.loc 16 83 16 view .LVU142
 775 00b0 C3ED006A 		vstr.32	s13, [r3]
 776              	.LBB782:
 777              	.LBB775:
 778              		.loc 17 189 31 view .LVU143
 779 00b4 B0EE657A 		vmov.f32	s14, s11
 780              	.LBE775:
 781              	.LBE782:
  84:MiniSynth.cpp **** 	display_detune_cents	= detune_cents;
 782              		.loc 16 84 20 view .LVU144
 783 00b8 854B     		ldr	r3, .L47+52
 784              	.LBB783:
 785              	.LBB776:
 786              		.loc 17 189 31 view .LVU145
 787 00ba DFED863A 		vldr.32	s7, .L47+56
 788              	.LBE776:
 789              	.LBE783:
  84:MiniSynth.cpp **** 	display_detune_cents	= detune_cents;
 790              		.loc 16 84 20 view .LVU146
 791 00be C3ED007A 		vstr.32	s15, [r3]
  85:MiniSynth.cpp **** 
 792              		.loc 16 85 23 view .LVU147
 793 00c2 854B     		ldr	r3, .L47+60
 794              	.LBB784:
 795              	.LBB777:
 796              		.loc 17 189 31 view .LVU148
 797 00c4 A8EE237A 		vfma.f32	s14, s16, s7
 798              	.LBB761:
 799              	.LBB762:
 800              	.LBB763:
  55:../../DaisySP//Source/Utility/dsp.h **** #else
ARM GAS  C:\Users\evang\AppData\Local\Temp\ccUReI4Z.s 			page 51


 801              		.loc 17 55 5 view .LVU149
 802 00c8 9FED843A 		vldr.32	s6, .L47+64
 803              	.LBE763:
 804              	.LBE762:
 805              	.LBE761:
 806              	.LBE777:
 807              	.LBE784:
  88:MiniSynth.cpp **** 	mod_cutoff = fclamp(mod_cutoff, 20.f, 18000.f);
 808              		.loc 16 88 8 view .LVU150
 809 00cc B0EE468A 		vmov.f32	s16, s12
 810              	.LVL43:
 811              	.LBB785:
 812              	.LBB778:
 813              	.LBB772:
 814              	.LBB766:
 815              	.LBB767:
  44:../../DaisySP//Source/Utility/dsp.h **** #else
 816              		.loc 17 44 5 view .LVU151
 817              		.syntax unified
 818              	@ 44 "../../DaisySP//Source/Utility/dsp.h" 1
 819 00d0 87FE257A 		vmaxnm.f32 s14, s14, s11
 820              	@ 0 "" 2
 821              		.thumb
 822              		.syntax unified
 823              	.LBE767:
 824              	.LBE766:
 825              	.LBB769:
 826              	.LBB764:
  55:../../DaisySP//Source/Utility/dsp.h **** #else
 827              		.loc 17 55 5 view .LVU152
 828              		.syntax unified
 829              	@ 55 "../../DaisySP//Source/Utility/dsp.h" 1
 830 00d4 87FE437A 		vminnm.f32 s14, s14, s6
 831              	@ 0 "" 2
 832              		.thumb
 833              		.syntax unified
 834              	.LBE764:
 835              	.LBE769:
 836              	.LBE772:
 837              	.LBE778:
 838              	.LBE785:
  85:MiniSynth.cpp **** 
 839              		.loc 16 85 23 view .LVU153
 840 00d8 83ED007A 		vstr.32	s14, [r3]
 841              		.loc 16 94 22 view .LVU154
 842 00dc D9F80030 		ldr	r3, [r9]
  88:MiniSynth.cpp **** 	mod_cutoff = fclamp(mod_cutoff, 20.f, 18000.f);
 843              		.loc 16 88 8 view .LVU155
 844 00e0 98ED002A 		vldr.32	s4, [r8]
  73:MiniSynth.cpp **** 	
 845              		.loc 16 73 2 is_stmt 1 view .LVU156
 846              	.LVL44:
 847              	.LBB786:
 848              	.LBI719:
 177:../../DaisySP//Source/Utility/dsp.h **** {
 849              		.loc 17 177 1 view .LVU157
 850              	.LBE786:
ARM GAS  C:\Users\evang\AppData\Local\Temp\ccUReI4Z.s 			page 52


 179:../../DaisySP//Source/Utility/dsp.h ****     {
 851              		.loc 17 179 5 view .LVU158
 852              	.LBB787:
 853              	.LBB740:
 188:../../DaisySP//Source/Utility/dsp.h ****         default: return fclamp(min + in * (max - min), min, max);
 854              		.loc 17 188 9 view .LVU159
 855              		.loc 17 189 9 view .LVU160
 856              		.loc 17 189 18 view .LVU161
 857              	.LBB733:
 858              	.LBI721:
  64:../../DaisySP//Source/Utility/dsp.h **** {
 859              		.loc 17 64 14 view .LVU162
 860              	.LBE733:
 861              	.LBE740:
 862              	.LBE787:
  66:../../DaisySP//Source/Utility/dsp.h **** }
 863              		.loc 17 66 5 view .LVU163
 864              	.LBB788:
 865              	.LBB741:
 866              	.LBB734:
 867              	.LBB730:
 868              	.LBI726:
  40:../../DaisySP//Source/Utility/dsp.h **** {
 869              		.loc 17 40 14 view .LVU164
 870              	.LBB728:
  42:../../DaisySP//Source/Utility/dsp.h **** #ifdef __arm__
 871              		.loc 17 42 5 view .LVU165
  44:../../DaisySP//Source/Utility/dsp.h **** #else
 872              		.loc 17 44 5 view .LVU166
  48:../../DaisySP//Source/Utility/dsp.h **** }
 873              		.loc 17 48 5 view .LVU167
  48:../../DaisySP//Source/Utility/dsp.h **** }
 874              		.loc 17 48 5 is_stmt 0 view .LVU168
 875              	.LBE728:
 876              	.LBE730:
 877              	.LBB731:
 878              	.LBI722:
  51:../../DaisySP//Source/Utility/dsp.h **** {
 879              		.loc 17 51 14 is_stmt 1 view .LVU169
 880              	.LBB725:
  53:../../DaisySP//Source/Utility/dsp.h **** #ifdef __arm__
 881              		.loc 17 53 5 view .LVU170
  55:../../DaisySP//Source/Utility/dsp.h **** #else
 882              		.loc 17 55 5 view .LVU171
  59:../../DaisySP//Source/Utility/dsp.h **** }
 883              		.loc 17 59 5 view .LVU172
  59:../../DaisySP//Source/Utility/dsp.h **** }
 884              		.loc 17 59 5 is_stmt 0 view .LVU173
 885              	.LBE725:
 886              	.LBE731:
 887              	.LBE734:
 888              	.LBE741:
 889              	.LBE788:
 890              		.loc 16 94 5 view .LVU174
 891 00e4 002B     		cmp	r3, #0
 892              	.LBB789:
 893              	.LBB749:
ARM GAS  C:\Users\evang\AppData\Local\Temp\ccUReI4Z.s 			page 53


 894              	.LBB750:
  55:../../DaisySP//Source/Utility/dsp.h **** #else
 895              		.loc 17 55 5 view .LVU175
 896 00e6 DFED7E3A 		vldr.32	s7, .L47+68
 897              	.LBE750:
 898              	.LBE749:
 899              	.LBE789:
  88:MiniSynth.cpp **** 	mod_cutoff = fclamp(mod_cutoff, 20.f, 18000.f);
 900              		.loc 16 88 8 view .LVU176
 901 00ea A2EE278A 		vfma.f32	s16, s4, s15
  73:MiniSynth.cpp **** 	
 902              		.loc 16 73 14 view .LVU177
 903 00ee CAED006A 		vstr.32	s13, [r10]
  76:MiniSynth.cpp **** 
 904              		.loc 16 76 2 is_stmt 1 view .LVU178
 905              	.LVL45:
 906              	.LBB790:
 907              	.LBI702:
 177:../../DaisySP//Source/Utility/dsp.h **** {
 908              		.loc 17 177 1 view .LVU179
 909              	.LBE790:
 179:../../DaisySP//Source/Utility/dsp.h ****     {
 910              		.loc 17 179 5 view .LVU180
 911              	.LBB791:
 912              	.LBB717:
 188:../../DaisySP//Source/Utility/dsp.h ****         default: return fclamp(min + in * (max - min), min, max);
 913              		.loc 17 188 9 view .LVU181
 914              		.loc 17 189 9 view .LVU182
 915              		.loc 17 189 18 view .LVU183
 916              	.LBB713:
 917              	.LBI704:
  64:../../DaisySP//Source/Utility/dsp.h **** {
 918              		.loc 17 64 14 view .LVU184
 919              	.LBE713:
 920              	.LBE717:
 921              	.LBE791:
  66:../../DaisySP//Source/Utility/dsp.h **** }
 922              		.loc 17 66 5 view .LVU185
 923              	.LBB792:
 924              	.LBB718:
 925              	.LBB714:
 926              	.LBB711:
 927              	.LBI705:
  40:../../DaisySP//Source/Utility/dsp.h **** {
 928              		.loc 17 40 14 view .LVU186
 929              	.LBB707:
  42:../../DaisySP//Source/Utility/dsp.h **** #ifdef __arm__
 930              		.loc 17 42 5 view .LVU187
  44:../../DaisySP//Source/Utility/dsp.h **** #else
 931              		.loc 17 44 5 view .LVU188
  48:../../DaisySP//Source/Utility/dsp.h **** }
 932              		.loc 17 48 5 view .LVU189
  48:../../DaisySP//Source/Utility/dsp.h **** }
 933              		.loc 17 48 5 is_stmt 0 view .LVU190
 934              	.LBE707:
 935              	.LBE711:
 936              	.LBB712:
ARM GAS  C:\Users\evang\AppData\Local\Temp\ccUReI4Z.s 			page 54


 937              	.LBI708:
  51:../../DaisySP//Source/Utility/dsp.h **** {
 938              		.loc 17 51 14 is_stmt 1 view .LVU191
 939              	.LBB710:
  53:../../DaisySP//Source/Utility/dsp.h **** #ifdef __arm__
 940              		.loc 17 53 5 view .LVU192
  55:../../DaisySP//Source/Utility/dsp.h **** #else
 941              		.loc 17 55 5 view .LVU193
  59:../../DaisySP//Source/Utility/dsp.h **** }
 942              		.loc 17 59 5 view .LVU194
  59:../../DaisySP//Source/Utility/dsp.h **** }
 943              		.loc 17 59 5 is_stmt 0 view .LVU195
 944              	.LBE710:
 945              	.LBE712:
 946              	.LBE714:
 947              	.LBE718:
 948              	.LBE792:
 949              	.LBB793:
 950              	.LBB752:
 951              	.LBB747:
  44:../../DaisySP//Source/Utility/dsp.h **** #else
 952              		.loc 17 44 5 view .LVU196
 953              		.syntax unified
 954              	@ 44 "../../DaisySP//Source/Utility/dsp.h" 1
 955 00f2 88FE228A 		vmaxnm.f32 s16, s16, s5
 956              	@ 0 "" 2
 957              		.thumb
 958              		.syntax unified
 959              	.LBE747:
 960              	.LBE752:
 961              	.LBE793:
  79:MiniSynth.cpp **** 
 962              		.loc 16 79 2 is_stmt 1 view .LVU197
 963              	.LVL46:
 964              	.LBB794:
 965              	.LBI759:
 177:../../DaisySP//Source/Utility/dsp.h **** {
 966              		.loc 17 177 1 view .LVU198
 967              	.LBE794:
 179:../../DaisySP//Source/Utility/dsp.h ****     {
 968              		.loc 17 179 5 view .LVU199
 969              	.LBB795:
 970              	.LBB779:
 188:../../DaisySP//Source/Utility/dsp.h ****         default: return fclamp(min + in * (max - min), min, max);
 971              		.loc 17 188 9 view .LVU200
 972              		.loc 17 189 9 view .LVU201
 973              		.loc 17 189 18 view .LVU202
 974              	.LBB773:
 975              	.LBI761:
  64:../../DaisySP//Source/Utility/dsp.h **** {
 976              		.loc 17 64 14 view .LVU203
 977              	.LBE773:
 978              	.LBE779:
 979              	.LBE795:
  66:../../DaisySP//Source/Utility/dsp.h **** }
 980              		.loc 17 66 5 view .LVU204
 981              	.LBB796:
ARM GAS  C:\Users\evang\AppData\Local\Temp\ccUReI4Z.s 			page 55


 982              	.LBB780:
 983              	.LBB774:
 984              	.LBB770:
 985              	.LBI766:
  40:../../DaisySP//Source/Utility/dsp.h **** {
 986              		.loc 17 40 14 view .LVU205
 987              	.LBB768:
  42:../../DaisySP//Source/Utility/dsp.h **** #ifdef __arm__
 988              		.loc 17 42 5 view .LVU206
  44:../../DaisySP//Source/Utility/dsp.h **** #else
 989              		.loc 17 44 5 view .LVU207
  48:../../DaisySP//Source/Utility/dsp.h **** }
 990              		.loc 17 48 5 view .LVU208
  48:../../DaisySP//Source/Utility/dsp.h **** }
 991              		.loc 17 48 5 is_stmt 0 view .LVU209
 992              	.LBE768:
 993              	.LBE770:
 994              	.LBB771:
 995              	.LBI762:
  51:../../DaisySP//Source/Utility/dsp.h **** {
 996              		.loc 17 51 14 is_stmt 1 view .LVU210
 997              	.LBB765:
  53:../../DaisySP//Source/Utility/dsp.h **** #ifdef __arm__
 998              		.loc 17 53 5 view .LVU211
  55:../../DaisySP//Source/Utility/dsp.h **** #else
 999              		.loc 17 55 5 view .LVU212
  59:../../DaisySP//Source/Utility/dsp.h **** }
 1000              		.loc 17 59 5 view .LVU213
  59:../../DaisySP//Source/Utility/dsp.h **** }
 1001              		.loc 17 59 5 is_stmt 0 view .LVU214
 1002              	.LBE765:
 1003              	.LBE771:
 1004              	.LBE774:
 1005              	.LBE780:
 1006              	.LBE796:
  79:MiniSynth.cpp **** 
 1007              		.loc 16 79 18 view .LVU215
 1008 00f6 87ED007A 		vstr.32	s14, [r7]
  82:MiniSynth.cpp **** 	display_q 				= q;
 1009              		.loc 16 82 2 is_stmt 1 view .LVU216
  83:MiniSynth.cpp **** 	display_env_amt 		= env_mod_amount;
 1010              		.loc 16 83 2 view .LVU217
  84:MiniSynth.cpp **** 	display_detune_cents	= detune_cents;
 1011              		.loc 16 84 2 view .LVU218
  85:MiniSynth.cpp **** 
 1012              		.loc 16 85 2 view .LVU219
  88:MiniSynth.cpp **** 	mod_cutoff = fclamp(mod_cutoff, 20.f, 18000.f);
 1013              		.loc 16 88 2 view .LVU220
 1014              	.LVL47:
  89:MiniSynth.cpp **** 	
 1015              		.loc 16 89 2 view .LVU221
 1016              	.LBB797:
 1017              	.LBI744:
  64:../../DaisySP//Source/Utility/dsp.h **** {
 1018              		.loc 17 64 14 view .LVU222
 1019              	.LBE797:
  66:../../DaisySP//Source/Utility/dsp.h **** }
ARM GAS  C:\Users\evang\AppData\Local\Temp\ccUReI4Z.s 			page 56


 1020              		.loc 17 66 5 view .LVU223
 1021              	.LBB798:
 1022              	.LBB753:
 1023              	.LBI745:
  40:../../DaisySP//Source/Utility/dsp.h **** {
 1024              		.loc 17 40 14 view .LVU224
 1025              	.LBB748:
  42:../../DaisySP//Source/Utility/dsp.h **** #ifdef __arm__
 1026              		.loc 17 42 5 view .LVU225
  44:../../DaisySP//Source/Utility/dsp.h **** #else
 1027              		.loc 17 44 5 view .LVU226
  48:../../DaisySP//Source/Utility/dsp.h **** }
 1028              		.loc 17 48 5 view .LVU227
  48:../../DaisySP//Source/Utility/dsp.h **** }
 1029              		.loc 17 48 5 is_stmt 0 view .LVU228
 1030              	.LBE748:
 1031              	.LBE753:
 1032              	.LBB754:
 1033              	.LBI749:
  51:../../DaisySP//Source/Utility/dsp.h **** {
 1034              		.loc 17 51 14 is_stmt 1 view .LVU229
 1035              	.LBB751:
  53:../../DaisySP//Source/Utility/dsp.h **** #ifdef __arm__
 1036              		.loc 17 53 5 view .LVU230
  55:../../DaisySP//Source/Utility/dsp.h **** #else
 1037              		.loc 17 55 5 view .LVU231
 1038              		.syntax unified
 1039              	@ 55 "../../DaisySP//Source/Utility/dsp.h" 1
 1040 00fa 88FE638A 		vminnm.f32 s16, s16, s7
 1041              	@ 0 "" 2
 1042              	.LVL48:
  59:../../DaisySP//Source/Utility/dsp.h **** }
 1043              		.loc 17 59 5 view .LVU232
  59:../../DaisySP//Source/Utility/dsp.h **** }
 1044              		.loc 17 59 5 is_stmt 0 view .LVU233
 1045              		.thumb
 1046              		.syntax unified
 1047              	.LBE751:
 1048              	.LBE754:
 1049              	.LBE798:
  92:MiniSynth.cpp **** 
 1050              		.loc 16 92 2 is_stmt 1 view .LVU234
 1051              		.loc 16 94 5 view .LVU235
 1052 00fe C0F2CA80 		blt	.L28
  95:MiniSynth.cpp ****         osc.SetFreq(mtof(current_note));
 1053              		.loc 16 95 9 view .LVU236
 1054              	.LVL49:
 1055              	.LBB799:
 1056              	.LBI799:
 139:../../DaisySP//Source/Utility/dsp.h **** {
 1057              		.loc 17 139 14 view .LVU237
 1058              	.LBB800:
 141:../../DaisySP//Source/Utility/dsp.h **** }
 1059              		.loc 17 141 5 view .LVU238
 1060              	.LBE800:
 1061              	.LBE799:
 1062              		.loc 16 95 20 is_stmt 0 view .LVU239
ARM GAS  C:\Users\evang\AppData\Local\Temp\ccUReI4Z.s 			page 57


 1063 0102 07EE903A 		vmov	s15, r3	@ int
 1064              	.LBB803:
 1065              	.LBB801:
 141:../../DaisySP//Source/Utility/dsp.h **** }
 1066              		.loc 17 141 23 view .LVU240
 1067 0106 9FED777A 		vldr.32	s14, .L47+72
 141:../../DaisySP//Source/Utility/dsp.h **** }
 1068              		.loc 17 141 16 view .LVU241
 1069 010a F2EE080A 		vmov.f32	s1, #1.2e+1
 1070              	.LBE801:
 1071              	.LBE803:
 1072              		.loc 16 95 20 view .LVU242
 1073 010e F8EEE77A 		vcvt.f32.s32	s15, s15
 1074              	.LVL50:
 1075              	.LBB804:
 1076              	.LBB802:
 141:../../DaisySP//Source/Utility/dsp.h **** }
 1077              		.loc 17 141 16 view .LVU243
 1078 0112 B0EE000A 		vmov.f32	s0, #2.0e+0
 141:../../DaisySP//Source/Utility/dsp.h **** }
 1079              		.loc 17 141 23 view .LVU244
 1080 0116 77EEC77A 		vsub.f32	s15, s15, s14
 1081              	.LVL51:
 141:../../DaisySP//Source/Utility/dsp.h **** }
 1082              		.loc 17 141 16 view .LVU245
 1083 011a C7EEA00A 		vdiv.f32	s1, s15, s1
 1084 011e FFF7FEFF 		bl	powf
 1085              	.LVL52:
 141:../../DaisySP//Source/Utility/dsp.h **** }
 1086              		.loc 17 141 43 view .LVU246
 1087 0122 DFED717A 		vldr.32	s15, .L47+76
 1088 0126 20EE270A 		vmul.f32	s0, s0, s15
 1089              	.LVL53:
 141:../../DaisySP//Source/Utility/dsp.h **** }
 1090              		.loc 17 141 43 view .LVU247
 1091              	.LBE802:
 1092              	.LBE804:
 1093              	.LBB805:
 1094              	.LBI805:
  25:../../DaisySP//Source/Synthesis/oscillator.h ****     /** Choices for output waveforms, POLYBLEP are appropriately labeled. Others are naive forms.
  26:../../DaisySP//Source/Synthesis/oscillator.h ****     */
  27:../../DaisySP//Source/Synthesis/oscillator.h ****     enum
  28:../../DaisySP//Source/Synthesis/oscillator.h ****     {
  29:../../DaisySP//Source/Synthesis/oscillator.h ****         WAVE_SIN,
  30:../../DaisySP//Source/Synthesis/oscillator.h ****         WAVE_TRI,
  31:../../DaisySP//Source/Synthesis/oscillator.h ****         WAVE_SAW,
  32:../../DaisySP//Source/Synthesis/oscillator.h ****         WAVE_RAMP,
  33:../../DaisySP//Source/Synthesis/oscillator.h ****         WAVE_SQUARE,
  34:../../DaisySP//Source/Synthesis/oscillator.h ****         WAVE_POLYBLEP_TRI,
  35:../../DaisySP//Source/Synthesis/oscillator.h ****         WAVE_POLYBLEP_SAW,
  36:../../DaisySP//Source/Synthesis/oscillator.h ****         WAVE_POLYBLEP_SQUARE,
  37:../../DaisySP//Source/Synthesis/oscillator.h ****         WAVE_LAST,
  38:../../DaisySP//Source/Synthesis/oscillator.h ****     };
  39:../../DaisySP//Source/Synthesis/oscillator.h **** 
  40:../../DaisySP//Source/Synthesis/oscillator.h **** 
  41:../../DaisySP//Source/Synthesis/oscillator.h ****     /** Initializes the Oscillator
  42:../../DaisySP//Source/Synthesis/oscillator.h **** 
ARM GAS  C:\Users\evang\AppData\Local\Temp\ccUReI4Z.s 			page 58


  43:../../DaisySP//Source/Synthesis/oscillator.h ****         \param sample_rate - sample rate of the audio engine being run, and the frequency that the 
  44:../../DaisySP//Source/Synthesis/oscillator.h **** 
  45:../../DaisySP//Source/Synthesis/oscillator.h ****         Defaults:
  46:../../DaisySP//Source/Synthesis/oscillator.h ****         - freq_ = 100 Hz
  47:../../DaisySP//Source/Synthesis/oscillator.h ****         - amp_ = 0.5
  48:../../DaisySP//Source/Synthesis/oscillator.h ****         - waveform_ = sine wave.
  49:../../DaisySP//Source/Synthesis/oscillator.h ****     */
  50:../../DaisySP//Source/Synthesis/oscillator.h ****     void Init(float sample_rate)
  51:../../DaisySP//Source/Synthesis/oscillator.h ****     {
  52:../../DaisySP//Source/Synthesis/oscillator.h ****         sr_        = sample_rate;
  53:../../DaisySP//Source/Synthesis/oscillator.h ****         sr_recip_  = 1.0f / sample_rate;
  54:../../DaisySP//Source/Synthesis/oscillator.h ****         freq_      = 100.0f;
  55:../../DaisySP//Source/Synthesis/oscillator.h ****         amp_       = 0.5f;
  56:../../DaisySP//Source/Synthesis/oscillator.h ****         pw_        = 0.5f;
  57:../../DaisySP//Source/Synthesis/oscillator.h ****         phase_     = 0.0f;
  58:../../DaisySP//Source/Synthesis/oscillator.h ****         phase_inc_ = CalcPhaseInc(freq_);
  59:../../DaisySP//Source/Synthesis/oscillator.h ****         waveform_  = WAVE_SIN;
  60:../../DaisySP//Source/Synthesis/oscillator.h ****         eoc_       = true;
  61:../../DaisySP//Source/Synthesis/oscillator.h ****         eor_       = true;
  62:../../DaisySP//Source/Synthesis/oscillator.h ****     }
  63:../../DaisySP//Source/Synthesis/oscillator.h **** 
  64:../../DaisySP//Source/Synthesis/oscillator.h **** 
  65:../../DaisySP//Source/Synthesis/oscillator.h ****     /** Changes the frequency of the Oscillator, and recalculates phase increment.
  66:../../DaisySP//Source/Synthesis/oscillator.h ****     */
  67:../../DaisySP//Source/Synthesis/oscillator.h ****     inline void SetFreq(const float f)
 1095              		.loc 7 67 17 is_stmt 1 view .LVU248
 1096              	.LBB806:
  68:../../DaisySP//Source/Synthesis/oscillator.h ****     {
  69:../../DaisySP//Source/Synthesis/oscillator.h ****         freq_      = f;
 1097              		.loc 7 69 9 view .LVU249
 1098              	.L45:
 1099              		.loc 7 69 9 is_stmt 0 view .LVU250
 1100              	.LBE806:
 1101              	.LBE805:
 1102              	.LBB807:
 1103              	.LBB808:
 1104              		.loc 7 69 20 view .LVU251
 1105 012a 704E     		ldr	r6, .L47+80
  70:../../DaisySP//Source/Synthesis/oscillator.h ****         phase_inc_ = CalcPhaseInc(f);
 1106              		.loc 7 70 34 view .LVU252
 1107 012c 3046     		mov	r0, r6
  69:../../DaisySP//Source/Synthesis/oscillator.h ****         phase_inc_ = CalcPhaseInc(f);
 1108              		.loc 7 69 20 view .LVU253
 1109 012e 86ED020A 		vstr.32	s0, [r6, #8]
 1110              		.loc 7 70 9 is_stmt 1 view .LVU254
 1111              		.loc 7 70 34 is_stmt 0 view .LVU255
 1112 0132 FFF7FEFF 		bl	_ZN7daisysp10Oscillator12CalcPhaseIncEf
 1113              	.LVL54:
 1114              	.LBE808:
 1115              	.LBE807:
  96:MiniSynth.cpp ****     else
  97:MiniSynth.cpp ****         osc.SetFreq(mtof(midi_base)); // fallback
  98:MiniSynth.cpp **** 	
  99:MiniSynth.cpp ****    	// Base frequency
 100:MiniSynth.cpp ****     float base_hz = mtof(current_note >= 0 ? current_note : int(midi_base));
 1116              		.loc 16 100 39 view .LVU256
 1117 0136 D9F80030 		ldr	r3, [r9]
ARM GAS  C:\Users\evang\AppData\Local\Temp\ccUReI4Z.s 			page 59


 1118              	.LBB811:
 1119              	.LBB809:
 1120              		.loc 7 70 20 view .LVU257
 1121 013a 86ED070A 		vstr.32	s0, [r6, #28]
 1122              	.LBE809:
 1123              	.LBE811:
 1124              		.loc 16 100 5 is_stmt 1 view .LVU258
 1125              		.loc 16 100 25 is_stmt 0 view .LVU259
 1126 013e 002B     		cmp	r3, #0
 1127 0140 C0F2A680 		blt	.L43
 1128              		.loc 16 100 25 discriminator 2 view .LVU260
 1129 0144 07EE903A 		vmov	s15, r3	@ int
 1130              	.LBB812:
 1131              	.LBB813:
 141:../../DaisySP//Source/Utility/dsp.h **** }
 1132              		.loc 17 141 23 discriminator 2 view .LVU261
 1133 0148 DFED666A 		vldr.32	s13, .L47+72
 141:../../DaisySP//Source/Utility/dsp.h **** }
 1134              		.loc 17 141 16 discriminator 2 view .LVU262
 1135 014c B2EE087A 		vmov.f32	s14, #1.2e+1
 1136              	.LBE813:
 1137              	.LBE812:
 1138              		.loc 16 100 25 discriminator 2 view .LVU263
 1139 0150 F8EEE77A 		vcvt.f32.s32	s15, s15
 1140              	.LBB816:
 1141              	.LBB814:
 141:../../DaisySP//Source/Utility/dsp.h **** }
 1142              		.loc 17 141 23 discriminator 2 view .LVU264
 1143 0154 77EEE67A 		vsub.f32	s15, s15, s13
 141:../../DaisySP//Source/Utility/dsp.h **** }
 1144              		.loc 17 141 16 discriminator 2 view .LVU265
 1145 0158 C7EE870A 		vdiv.f32	s1, s15, s14
 1146              	.L30:
 1147              	.LBE814:
 1148              	.LBI812:
 139:../../DaisySP//Source/Utility/dsp.h **** {
 1149              		.loc 17 139 14 is_stmt 1 discriminator 4 view .LVU266
 1150              	.LBB815:
 141:../../DaisySP//Source/Utility/dsp.h **** }
 1151              		.loc 17 141 5 discriminator 4 view .LVU267
 141:../../DaisySP//Source/Utility/dsp.h **** }
 1152              		.loc 17 141 43 is_stmt 0 discriminator 4 view .LVU268
 1153 015c DFED628A 		vldr.32	s17, .L47+76
 1154              	.LVL55:
 141:../../DaisySP//Source/Utility/dsp.h **** }
 1155              		.loc 17 141 16 discriminator 4 view .LVU269
 1156 0160 B0EE000A 		vmov.f32	s0, #2.0e+0
 1157 0164 FFF7FEFF 		bl	powf
 1158              	.LVL56:
 141:../../DaisySP//Source/Utility/dsp.h **** }
 1159              		.loc 17 141 43 discriminator 4 view .LVU270
 1160 0168 60EE288A 		vmul.f32	s17, s0, s17
 1161              	.LVL57:
 141:../../DaisySP//Source/Utility/dsp.h **** }
 1162              		.loc 17 141 43 discriminator 4 view .LVU271
 1163              	.LBE815:
 1164              	.LBE816:
ARM GAS  C:\Users\evang\AppData\Local\Temp\ccUReI4Z.s 			page 60


 101:MiniSynth.cpp ****     // Primary
 102:MiniSynth.cpp ****     osc.SetFreq(base_hz);
 1165              		.loc 16 102 5 is_stmt 1 discriminator 4 view .LVU272
 1166              	.LBB817:
 1167              	.LBI817:
  67:../../DaisySP//Source/Synthesis/oscillator.h ****     {
 1168              		.loc 7 67 17 discriminator 4 view .LVU273
 1169              	.LBB818:
  69:../../DaisySP//Source/Synthesis/oscillator.h ****         phase_inc_ = CalcPhaseInc(f);
 1170              		.loc 7 69 9 discriminator 4 view .LVU274
 1171              		.loc 7 70 34 is_stmt 0 discriminator 4 view .LVU275
 1172 016c 5F48     		ldr	r0, .L47+80
 1173 016e B0EE680A 		vmov.f32	s0, s17
  69:../../DaisySP//Source/Synthesis/oscillator.h ****         phase_inc_ = CalcPhaseInc(f);
 1174              		.loc 7 69 20 discriminator 4 view .LVU276
 1175 0172 C6ED028A 		vstr.32	s17, [r6, #8]
 1176              		.loc 7 70 9 is_stmt 1 discriminator 4 view .LVU277
 1177              		.loc 7 70 34 is_stmt 0 discriminator 4 view .LVU278
 1178 0176 FFF7FEFF 		bl	_ZN7daisysp10Oscillator12CalcPhaseIncEf
 1179              	.LVL58:
 1180              	.LBE818:
 1181              	.LBE817:
 103:MiniSynth.cpp ****     // Detuned: cents  ratio
 104:MiniSynth.cpp ****     float ratio = powf(2.f, detune_cents / 1200.f);
 1182              		.loc 16 104 23 discriminator 4 view .LVU279
 1183 017a DFED5D7A 		vldr.32	s15, .L47+84
 1184 017e D7ED000A 		vldr.32	s1, [r7]
 1185              	.LBB820:
 1186              	.LBB819:
 1187              		.loc 7 70 20 discriminator 4 view .LVU280
 1188 0182 86ED070A 		vstr.32	s0, [r6, #28]
 1189              	.LVL59:
 1190              		.loc 7 70 20 discriminator 4 view .LVU281
 1191              	.LBE819:
 1192              	.LBE820:
 1193              		.loc 16 104 5 is_stmt 1 discriminator 4 view .LVU282
 1194              		.loc 16 104 23 is_stmt 0 discriminator 4 view .LVU283
 1195 0186 B0EE000A 		vmov.f32	s0, #2.0e+0
 1196 018a C0EEA70A 		vdiv.f32	s1, s1, s15
 1197              	.LBB821:
 1198              	.LBB822:
  69:../../DaisySP//Source/Synthesis/oscillator.h ****         phase_inc_ = CalcPhaseInc(f);
 1199              		.loc 7 69 20 discriminator 4 view .LVU284
 1200 018e 594F     		ldr	r7, .L47+88
 1201              	.LBE822:
 1202              	.LBE821:
 1203              		.loc 16 104 23 discriminator 4 view .LVU285
 1204 0190 FFF7FEFF 		bl	powf
 1205              	.LVL60:
 105:MiniSynth.cpp ****     osc2.SetFreq(base_hz * ratio);
 1206              		.loc 16 105 5 is_stmt 1 discriminator 4 view .LVU286
 1207              	.LBB826:
 1208              	.LBB823:
 1209              		.loc 7 70 34 is_stmt 0 discriminator 4 view .LVU287
 1210 0194 3846     		mov	r0, r7
 1211              	.LBE823:
 1212              	.LBE826:
ARM GAS  C:\Users\evang\AppData\Local\Temp\ccUReI4Z.s 			page 61


 1213              		.loc 16 105 17 discriminator 4 view .LVU288
 1214 0196 20EE280A 		vmul.f32	s0, s0, s17
 1215              	.LVL61:
 1216              	.LBB827:
 1217              	.LBI821:
  67:../../DaisySP//Source/Synthesis/oscillator.h ****     {
 1218              		.loc 7 67 17 is_stmt 1 discriminator 4 view .LVU289
 1219              	.LBB824:
  69:../../DaisySP//Source/Synthesis/oscillator.h ****         phase_inc_ = CalcPhaseInc(f);
 1220              		.loc 7 69 9 discriminator 4 view .LVU290
  69:../../DaisySP//Source/Synthesis/oscillator.h ****         phase_inc_ = CalcPhaseInc(f);
 1221              		.loc 7 69 20 is_stmt 0 discriminator 4 view .LVU291
 1222 019a 87ED020A 		vstr.32	s0, [r7, #8]
 1223              		.loc 7 70 9 is_stmt 1 discriminator 4 view .LVU292
 1224              		.loc 7 70 34 is_stmt 0 discriminator 4 view .LVU293
 1225 019e FFF7FEFF 		bl	_ZN7daisysp10Oscillator12CalcPhaseIncEf
 1226              	.LVL62:
 1227              		.loc 7 70 34 discriminator 4 view .LVU294
 1228 01a2 F0EE407A 		vmov.f32	s15, s0
 1229              	.LBE824:
 1230              	.LBE827:
 106:MiniSynth.cpp **** 
 107:MiniSynth.cpp **** 	// Set Filter
 108:MiniSynth.cpp ****     filter.SetFreq(mod_cutoff);
 1231              		.loc 16 108 19 discriminator 4 view .LVU295
 1232 01a6 5448     		ldr	r0, .L47+92
 1233 01a8 B0EE480A 		vmov.f32	s0, s16
 1234              	.LBB828:
 1235              	.LBB825:
 1236              		.loc 7 70 20 discriminator 4 view .LVU296
 1237 01ac C7ED077A 		vstr.32	s15, [r7, #28]
 1238              	.LVL63:
 1239              		.loc 7 70 20 discriminator 4 view .LVU297
 1240              	.LBE825:
 1241              	.LBE828:
 1242              		.loc 16 108 5 is_stmt 1 discriminator 4 view .LVU298
 1243              		.loc 16 108 19 is_stmt 0 discriminator 4 view .LVU299
 1244 01b0 FFF7FEFF 		bl	_ZN7daisysp3Svf7SetFreqEf
 1245              	.LVL64:
 109:MiniSynth.cpp **** 	filter.SetRes(q);
 1246              		.loc 16 109 2 is_stmt 1 discriminator 4 view .LVU300
 1247              		.loc 16 109 15 is_stmt 0 discriminator 4 view .LVU301
 1248 01b4 9AED000A 		vldr.32	s0, [r10]
 110:MiniSynth.cpp **** 
 111:MiniSynth.cpp ****     // A-H-D envelope
 112:MiniSynth.cpp ****     switch (current_stage)
 1249              		.loc 16 112 13 discriminator 4 view .LVU302
 1250 01b8 DFF85CA1 		ldr	r10, .L47+124
 109:MiniSynth.cpp **** 	filter.SetRes(q);
 1251              		.loc 16 109 15 discriminator 4 view .LVU303
 1252 01bc 4E48     		ldr	r0, .L47+92
 1253 01be FFF7FEFF 		bl	_ZN7daisysp3Svf6SetResEf
 1254              	.LVL65:
 1255              		.loc 16 112 5 is_stmt 1 discriminator 4 view .LVU304
 1256 01c2 9AF80030 		ldrb	r3, [r10]	@ zero_extendqisi2
 1257 01c6 032B     		cmp	r3, #3
 1258 01c8 06D8     		bhi	.L31
ARM GAS  C:\Users\evang\AppData\Local\Temp\ccUReI4Z.s 			page 62


 1259 01ca DFE803F0 		tbb	[pc, r3]
 1260              	.L33:
 1261 01ce 02       		.byte	(.L36-.L33)/2
 1262 01cf 4C       		.byte	(.L35-.L33)/2
 1263 01d0 47       		.byte	(.L34-.L33)/2
 1264 01d1 32       		.byte	(.L32-.L33)/2
 1265              		.p2align 1
 1266              	.L36:
 113:MiniSynth.cpp ****     {
 114:MiniSynth.cpp ****         case ENV_IDLE:
 1267              		.loc 16 114 9 view .LVU305
 115:MiniSynth.cpp ****             env_out = 0.f;
 1268              		.loc 16 115 13 view .LVU306
 1269              		.loc 16 115 21 is_stmt 0 view .LVU307
 1270 01d2 0023     		movs	r3, #0
 1271 01d4 C8F80030 		str	r3, [r8]	@ float
 116:MiniSynth.cpp ****             break;
 1272              		.loc 16 116 13 is_stmt 1 view .LVU308
 1273              	.L31:
 1274              	.LVL66:
 1275              	.LBB829:
 117:MiniSynth.cpp ****         case ENV_ATTACK:
 118:MiniSynth.cpp ****             env_out = env.Process();
 119:MiniSynth.cpp ****             if(env_out >= 0.99f)
 120:MiniSynth.cpp ****             {
 121:MiniSynth.cpp ****                 env_out = 1.f;
 122:MiniSynth.cpp ****                 current_stage = ENV_HOLD;
 123:MiniSynth.cpp ****             }
 124:MiniSynth.cpp ****             break;
 125:MiniSynth.cpp ****         case ENV_HOLD:
 126:MiniSynth.cpp ****             env_out = 1.f;
 127:MiniSynth.cpp ****             break;
 128:MiniSynth.cpp ****         case ENV_DECAY:
 129:MiniSynth.cpp ****             env_out = env.Process();
 130:MiniSynth.cpp ****             if(env_out <= 0.01f)
 131:MiniSynth.cpp ****             {
 132:MiniSynth.cpp ****                 env_out = 0.f;
 133:MiniSynth.cpp ****                 current_stage = ENV_IDLE;
 134:MiniSynth.cpp ****                 current_note = -1;
 135:MiniSynth.cpp ****             }
 136:MiniSynth.cpp ****             break;
 137:MiniSynth.cpp ****     }
 138:MiniSynth.cpp **** 
 139:MiniSynth.cpp ****     for(size_t i = 0; i < size; i += 2)
 1276              		.loc 16 139 25 discriminator 3 view .LVU309
 1277 01d8 35B3     		cbz	r5, .L27
 1278 01da 05F1FF39 		add	r9, r5, #-1
 1279 01de DFF818A1 		ldr	r10, .L47+92
 1280              		.loc 16 139 25 is_stmt 0 view .LVU310
 1281 01e2 0025     		movs	r5, #0
 1282              	.LVL67:
 1283              		.loc 16 139 25 view .LVU311
 1284 01e4 4FEA5909 		lsr	r9, r9, #1
 1285              	.LVL68:
 1286              	.L42:
 1287              	.LBB830:
 140:MiniSynth.cpp ****     {
ARM GAS  C:\Users\evang\AppData\Local\Temp\ccUReI4Z.s 			page 63


 141:MiniSynth.cpp **** 		// Oscs
 142:MiniSynth.cpp **** 		osc.SetAmp(env_out);
 1288              		.loc 16 142 3 is_stmt 1 discriminator 2 view .LVU312
 1289              		.loc 16 142 13 is_stmt 0 discriminator 2 view .LVU313
 1290 01e8 D8F80030 		ldr	r3, [r8]	@ float
 1291              	.LVL69:
 1292              	.LBB831:
 1293              	.LBI831:
  71:../../DaisySP//Source/Synthesis/oscillator.h ****     }
  72:../../DaisySP//Source/Synthesis/oscillator.h **** 
  73:../../DaisySP//Source/Synthesis/oscillator.h **** 
  74:../../DaisySP//Source/Synthesis/oscillator.h ****     /** Sets the amplitude of the waveform.
  75:../../DaisySP//Source/Synthesis/oscillator.h ****     */
  76:../../DaisySP//Source/Synthesis/oscillator.h ****     inline void SetAmp(const float a) { amp_ = a; }
 1294              		.loc 7 76 17 is_stmt 1 discriminator 2 view .LVU314
 1295              	.LBB832:
 1296              		.loc 7 76 41 discriminator 2 view .LVU315
 1297              	.LBE832:
 1298              	.LBE831:
 1299              	.LBE830:
 139:MiniSynth.cpp ****     {
 1300              		.loc 16 139 25 is_stmt 0 discriminator 2 view .LVU316
 1301 01ec 0834     		adds	r4, r4, #8
 1302              	.LBB839:
 143:MiniSynth.cpp **** 		osc2.SetAmp(env_out);
 144:MiniSynth.cpp **** 
 145:MiniSynth.cpp **** 		float s1 = osc.Process();
 1303              		.loc 16 145 25 discriminator 2 view .LVU317
 1304 01ee 3F48     		ldr	r0, .L47+80
 1305              	.LBB834:
 1306              	.LBB833:
 1307              		.loc 7 76 46 discriminator 2 view .LVU318
 1308 01f0 7360     		str	r3, [r6, #4]	@ float
 1309              	.LVL70:
 1310              		.loc 7 76 46 discriminator 2 view .LVU319
 1311              	.LBE833:
 1312              	.LBE834:
 143:MiniSynth.cpp **** 		osc2.SetAmp(env_out);
 1313              		.loc 16 143 3 is_stmt 1 discriminator 2 view .LVU320
 1314              	.LBB835:
 1315              	.LBI835:
 1316              		.loc 7 76 17 discriminator 2 view .LVU321
 1317              	.LBB836:
 1318              		.loc 7 76 41 discriminator 2 view .LVU322
 1319              		.loc 7 76 46 is_stmt 0 discriminator 2 view .LVU323
 1320 01f2 7B60     		str	r3, [r7, #4]	@ float
 1321              	.LVL71:
 1322              		.loc 7 76 46 discriminator 2 view .LVU324
 1323              	.LBE836:
 1324              	.LBE835:
 1325              		.loc 16 145 3 is_stmt 1 discriminator 2 view .LVU325
 1326              		.loc 16 145 25 is_stmt 0 discriminator 2 view .LVU326
 1327 01f4 FFF7FEFF 		bl	_ZN7daisysp10Oscillator7ProcessEv
 1328              	.LVL72:
 1329 01f8 B0EE408A 		vmov.f32	s16, s0
 1330              	.LVL73:
 146:MiniSynth.cpp **** 		float s2 = osc2.Process();
ARM GAS  C:\Users\evang\AppData\Local\Temp\ccUReI4Z.s 			page 64


 1331              		.loc 16 146 3 is_stmt 1 discriminator 2 view .LVU327
 1332              		.loc 16 146 26 is_stmt 0 discriminator 2 view .LVU328
 1333 01fc 3D48     		ldr	r0, .L47+88
 1334 01fe FFF7FEFF 		bl	_ZN7daisysp10Oscillator7ProcessEv
 1335              	.LVL74:
 147:MiniSynth.cpp **** 		float mixed = 0.5f * (s1 + s2);
 1336              		.loc 16 147 3 is_stmt 1 discriminator 2 view .LVU329
 148:MiniSynth.cpp **** 
 149:MiniSynth.cpp **** 		filter.Process(mixed);
 1337              		.loc 16 149 3 discriminator 2 view .LVU330
 147:MiniSynth.cpp **** 		float mixed = 0.5f * (s1 + s2);
 1338              		.loc 16 147 9 is_stmt 0 discriminator 2 view .LVU331
 1339 0202 F6EE007A 		vmov.f32	s15, #5.0e-1
 1340              		.loc 16 149 17 discriminator 2 view .LVU332
 1341 0206 3C48     		ldr	r0, .L47+92
 147:MiniSynth.cpp **** 		float mixed = 0.5f * (s1 + s2);
 1342              		.loc 16 147 28 discriminator 2 view .LVU333
 1343 0208 38EE000A 		vadd.f32	s0, s16, s0
 1344              	.LVL75:
 1345              		.loc 16 149 17 discriminator 2 view .LVU334
 1346 020c 20EE270A 		vmul.f32	s0, s0, s15
 1347              	.LVL76:
 1348              		.loc 16 149 17 discriminator 2 view .LVU335
 1349 0210 FFF7FEFF 		bl	_ZN7daisysp3Svf7ProcessEf
 1350              	.LVL77:
 150:MiniSynth.cpp **** 		filtered = filter.Low();
 1351              		.loc 16 150 3 is_stmt 1 discriminator 2 view .LVU336
 1352              	.LBB837:
 1353              	.LBI837:
  31:../../DaisySP//Source/Filters/svf.h ****     /** Initializes the filter
  32:../../DaisySP//Source/Filters/svf.h ****         float sample_rate - sample rate of the audio engine being run, and the frequency that the P
  33:../../DaisySP//Source/Filters/svf.h ****     */
  34:../../DaisySP//Source/Filters/svf.h ****     void Init(float sample_rate);
  35:../../DaisySP//Source/Filters/svf.h **** 
  36:../../DaisySP//Source/Filters/svf.h **** 
  37:../../DaisySP//Source/Filters/svf.h ****     /** 
  38:../../DaisySP//Source/Filters/svf.h ****         Process the input signal, updating all of the outputs.
  39:../../DaisySP//Source/Filters/svf.h ****     */
  40:../../DaisySP//Source/Filters/svf.h ****     void Process(float in);
  41:../../DaisySP//Source/Filters/svf.h **** 
  42:../../DaisySP//Source/Filters/svf.h **** 
  43:../../DaisySP//Source/Filters/svf.h ****     /** sets the frequency of the cutoff frequency. 
  44:../../DaisySP//Source/Filters/svf.h ****         f must be between 0.0 and sample_rate / 3
  45:../../DaisySP//Source/Filters/svf.h ****     */
  46:../../DaisySP//Source/Filters/svf.h ****     void SetFreq(float f);
  47:../../DaisySP//Source/Filters/svf.h **** 
  48:../../DaisySP//Source/Filters/svf.h ****     /** sets the resonance of the filter.
  49:../../DaisySP//Source/Filters/svf.h ****         Must be between 0.0 and 1.0 to ensure stability.
  50:../../DaisySP//Source/Filters/svf.h ****     */
  51:../../DaisySP//Source/Filters/svf.h ****     void SetRes(float r);
  52:../../DaisySP//Source/Filters/svf.h **** 
  53:../../DaisySP//Source/Filters/svf.h ****     /** sets the drive of the filter 
  54:../../DaisySP//Source/Filters/svf.h ****         affects the response of the resonance of the filter
  55:../../DaisySP//Source/Filters/svf.h ****     */
  56:../../DaisySP//Source/Filters/svf.h ****     void SetDrive(float d);
  57:../../DaisySP//Source/Filters/svf.h ****     /** lowpass output
  58:../../DaisySP//Source/Filters/svf.h ****         \return low pass output of the filter
ARM GAS  C:\Users\evang\AppData\Local\Temp\ccUReI4Z.s 			page 65


  59:../../DaisySP//Source/Filters/svf.h ****     */
  60:../../DaisySP//Source/Filters/svf.h ****     inline float Low() { return out_low_; }
 1354              		.loc 8 60 18 discriminator 2 view .LVU337
 1355              	.LBB838:
 1356              		.loc 8 60 26 discriminator 2 view .LVU338
 1357              		.loc 8 60 33 is_stmt 0 discriminator 2 view .LVU339
 1358 0214 DAF83020 		ldr	r2, [r10, #48]	@ float
 1359              	.LVL78:
 1360              		.loc 8 60 33 discriminator 2 view .LVU340
 1361              	.LBE838:
 1362              	.LBE837:
 151:MiniSynth.cpp **** 
 152:MiniSynth.cpp **** 		out[i    ] = filtered;
 1363              		.loc 16 152 3 is_stmt 1 discriminator 2 view .LVU341
 1364              	.LBE839:
 139:MiniSynth.cpp ****     {
 1365              		.loc 16 139 25 is_stmt 0 discriminator 2 view .LVU342
 1366 0218 4D45     		cmp	r5, r9
 1367 021a 05F10105 		add	r5, r5, #1
 1368              	.LVL79:
 1369              	.LBB840:
 1370              		.loc 16 152 14 discriminator 2 view .LVU343
 1371 021e 44F8082C 		str	r2, [r4, #-8]	@ float
 153:MiniSynth.cpp **** 		out[i + 1] = filtered;
 1372              		.loc 16 153 3 is_stmt 1 discriminator 2 view .LVU344
 1373              		.loc 16 153 14 is_stmt 0 discriminator 2 view .LVU345
 1374 0222 44F8042C 		str	r2, [r4, #-4]	@ float
 1375              	.LBE840:
 139:MiniSynth.cpp ****     {
 1376              		.loc 16 139 5 is_stmt 1 discriminator 2 view .LVU346
 1377              	.LVL80:
 139:MiniSynth.cpp ****     {
 1378              		.loc 16 139 25 discriminator 2 view .LVU347
 1379 0226 DFD1     		bne	.L42
 1380              	.LVL81:
 1381              	.L27:
 139:MiniSynth.cpp ****     {
 1382              		.loc 16 139 25 is_stmt 0 discriminator 2 view .LVU348
 1383              	.LBE829:
 154:MiniSynth.cpp ****     }
 155:MiniSynth.cpp **** }
 1384              		.loc 16 155 1 view .LVU349
 1385 0228 02B0     		add	sp, sp, #8
 1386              		.cfi_remember_state
 1387              		.cfi_def_cfa_offset 48
 1388              		@ sp needed
 1389 022a BDEC048B 		vldm	sp!, {d8-d9}
 1390              		.cfi_restore 82
 1391              		.cfi_restore 83
 1392              		.cfi_restore 80
 1393              		.cfi_restore 81
 1394              		.cfi_def_cfa_offset 32
 1395              	.LVL82:
 1396              		.loc 16 155 1 view .LVU350
 1397 022e BDE8F087 		pop	{r4, r5, r6, r7, r8, r9, r10, pc}
 1398              	.LVL83:
 1399              	.L32:
ARM GAS  C:\Users\evang\AppData\Local\Temp\ccUReI4Z.s 			page 66


 1400              		.cfi_restore_state
 128:MiniSynth.cpp ****             env_out = env.Process();
 1401              		.loc 16 128 9 is_stmt 1 view .LVU351
 129:MiniSynth.cpp ****             if(env_out <= 0.01f)
 1402              		.loc 16 129 13 view .LVU352
 129:MiniSynth.cpp ****             if(env_out <= 0.01f)
 1403              		.loc 16 129 34 is_stmt 0 view .LVU353
 1404 0232 3248     		ldr	r0, .L47+96
 1405 0234 FFF7FEFF 		bl	_ZN7daisysp5AdEnv7ProcessEv
 1406              	.LVL84:
 130:MiniSynth.cpp ****             {
 1407              		.loc 16 130 13 is_stmt 1 view .LVU354
 1408 0238 DFED317A 		vldr.32	s15, .L47+100
 1409 023c B4EEE70A 		vcmpe.f32	s0, s15
 1410 0240 F1EE10FA 		vmrs	APSR_nzcv, FPSCR
 1411 0244 21D8     		bhi	.L46
 132:MiniSynth.cpp ****                 current_stage = ENV_IDLE;
 1412              		.loc 16 132 17 view .LVU355
 132:MiniSynth.cpp ****                 current_stage = ENV_IDLE;
 1413              		.loc 16 132 25 is_stmt 0 view .LVU356
 1414 0246 0023     		movs	r3, #0
 1415 0248 C8F80030 		str	r3, [r8]	@ float
 133:MiniSynth.cpp ****                 current_note = -1;
 1416              		.loc 16 133 17 is_stmt 1 view .LVU357
 133:MiniSynth.cpp ****                 current_note = -1;
 1417              		.loc 16 133 31 is_stmt 0 view .LVU358
 1418 024c 0023     		movs	r3, #0
 1419 024e 8AF80030 		strb	r3, [r10]
 134:MiniSynth.cpp ****             }
 1420              		.loc 16 134 17 is_stmt 1 view .LVU359
 134:MiniSynth.cpp ****             }
 1421              		.loc 16 134 30 is_stmt 0 view .LVU360
 1422 0252 4FF0FF33 		mov	r3, #-1
 1423 0256 C9F80030 		str	r3, [r9]
 1424 025a BDE7     		b	.L31
 1425              	.L34:
 125:MiniSynth.cpp ****             env_out = 1.f;
 1426              		.loc 16 125 9 is_stmt 1 view .LVU361
 126:MiniSynth.cpp ****             break;
 1427              		.loc 16 126 13 view .LVU362
 126:MiniSynth.cpp ****             break;
 1428              		.loc 16 126 21 is_stmt 0 view .LVU363
 1429 025c 4FF07E53 		mov	r3, #1065353216
 1430 0260 C8F80030 		str	r3, [r8]	@ float
 127:MiniSynth.cpp ****         case ENV_DECAY:
 1431              		.loc 16 127 13 is_stmt 1 view .LVU364
 1432 0264 B8E7     		b	.L31
 1433              	.L35:
 117:MiniSynth.cpp ****             env_out = env.Process();
 1434              		.loc 16 117 9 view .LVU365
 118:MiniSynth.cpp ****             if(env_out >= 0.99f)
 1435              		.loc 16 118 13 view .LVU366
 118:MiniSynth.cpp ****             if(env_out >= 0.99f)
 1436              		.loc 16 118 34 is_stmt 0 view .LVU367
 1437 0266 2548     		ldr	r0, .L47+96
 1438 0268 FFF7FEFF 		bl	_ZN7daisysp5AdEnv7ProcessEv
 1439              	.LVL85:
ARM GAS  C:\Users\evang\AppData\Local\Temp\ccUReI4Z.s 			page 67


 119:MiniSynth.cpp ****             {
 1440              		.loc 16 119 13 is_stmt 1 view .LVU368
 1441 026c DFED257A 		vldr.32	s15, .L47+104
 1442 0270 B4EEE70A 		vcmpe.f32	s0, s15
 1443 0274 F1EE10FA 		vmrs	APSR_nzcv, FPSCR
 1444 0278 07DB     		blt	.L46
 121:MiniSynth.cpp ****                 current_stage = ENV_HOLD;
 1445              		.loc 16 121 17 view .LVU369
 121:MiniSynth.cpp ****                 current_stage = ENV_HOLD;
 1446              		.loc 16 121 25 is_stmt 0 view .LVU370
 1447 027a 4FF07E53 		mov	r3, #1065353216
 1448 027e C8F80030 		str	r3, [r8]	@ float
 122:MiniSynth.cpp ****             }
 1449              		.loc 16 122 17 is_stmt 1 view .LVU371
 122:MiniSynth.cpp ****             }
 1450              		.loc 16 122 31 is_stmt 0 view .LVU372
 1451 0282 0223     		movs	r3, #2
 1452 0284 8AF80030 		strb	r3, [r10]
 1453 0288 A6E7     		b	.L31
 1454              	.L46:
 129:MiniSynth.cpp ****             if(env_out <= 0.01f)
 1455              		.loc 16 129 21 view .LVU373
 1456 028a 88ED000A 		vstr.32	s0, [r8]
 1457 028e A3E7     		b	.L31
 1458              	.LVL86:
 1459              	.L43:
 129:MiniSynth.cpp ****             if(env_out <= 0.01f)
 1460              		.loc 16 129 21 view .LVU374
 1461 0290 F8EE060A 		vmov.f32	s1, #-2.75e+0
 1462 0294 62E7     		b	.L30
 1463              	.L28:
  97:MiniSynth.cpp **** 	
 1464              		.loc 16 97 9 is_stmt 1 view .LVU375
 1465              	.LVL87:
 141:../../DaisySP//Source/Utility/dsp.h **** }
 1466              		.loc 17 141 5 view .LVU376
 1467              	.LBB841:
 1468              	.LBI807:
  67:../../DaisySP//Source/Synthesis/oscillator.h ****     {
 1469              		.loc 7 67 17 view .LVU377
 1470              	.LBB810:
  69:../../DaisySP//Source/Synthesis/oscillator.h ****         phase_inc_ = CalcPhaseInc(f);
 1471              		.loc 7 69 9 view .LVU378
  69:../../DaisySP//Source/Synthesis/oscillator.h ****         phase_inc_ = CalcPhaseInc(f);
 1472              		.loc 7 69 20 is_stmt 0 view .LVU379
 1473 0296 9FED1C0A 		vldr.32	s0, .L47+108
 1474 029a 46E7     		b	.L45
 1475              	.L48:
 1476              		.align	2
 1477              	.L47:
 1478 029c 18000000 		.word	.LANCHOR0+24
 1479 02a0 00000000 		.word	.LANCHOR4
 1480 02a4 00007A43 		.word	1132068864
 1481 02a8 00002042 		.word	1109393408
 1482 02ac 00000000 		.word	0
 1483 02b0 00000000 		.word	.LANCHOR1
 1484 02b4 00007A45 		.word	1165623296
ARM GAS  C:\Users\evang\AppData\Local\Temp\ccUReI4Z.s 			page 68


 1485 02b8 CDCCCC3D 		.word	1036831949
 1486 02bc 00000000 		.word	.LANCHOR3
 1487 02c0 00000000 		.word	.LANCHOR5
 1488 02c4 3333B33F 		.word	1068708659
 1489 02c8 00000000 		.word	.LANCHOR6
 1490 02cc 000048C2 		.word	-1035468800
 1491 02d0 00000000 		.word	.LANCHOR7
 1492 02d4 0000C842 		.word	1120403456
 1493 02d8 00000000 		.word	.LANCHOR8
 1494 02dc 00004842 		.word	1112014848
 1495 02e0 00A08C46 		.word	1183621120
 1496 02e4 00008A42 		.word	1116340224
 1497 02e8 0000DC43 		.word	1138491392
 1498 02ec 00000000 		.word	.LANCHOR11
 1499 02f0 00009644 		.word	1150681088
 1500 02f4 00000000 		.word	.LANCHOR12
 1501 02f8 00000000 		.word	.LANCHOR13
 1502 02fc 00000000 		.word	.LANCHOR15
 1503 0300 0AD7233C 		.word	1008981770
 1504 0304 A4707D3F 		.word	1065185444
 1505 0308 12D08242 		.word	1115869202
 1506 030c 00000000 		.word	.LANCHOR10
 1507 0310 00000000 		.word	.LANCHOR9
 1508 0314 00000000 		.word	.LANCHOR2
 1509 0318 00000000 		.word	.LANCHOR14
 1510              	.LBE810:
 1511              	.LBE841:
 1512              		.cfi_endproc
 1513              	.LFE4709:
 1515              		.section	.text._ZN5daisy11OledDisplayINS_13SSD130xDriverILj128ELj64ENS_19SSD130xI2CTransportEEEE6U
 1516              		.align	1
 1517              		.p2align 2,,3
 1518              		.weak	_ZN5daisy11OledDisplayINS_13SSD130xDriverILj128ELj64ENS_19SSD130xI2CTransportEEEE6UpdateEv
 1519              		.syntax unified
 1520              		.thumb
 1521              		.thumb_func
 1522              		.fpu fpv5-d16
 1524              	_ZN5daisy11OledDisplayINS_13SSD130xDriverILj128ELj64ENS_19SSD130xI2CTransportEEEE6UpdateEv:
 1525              	.LVL88:
 1526              	.LFB5043:
  35:../../libDaisy//src/hid/disp/oled_display.h **** 
  36:../../libDaisy//src/hid/disp/oled_display.h ****     /**
  37:../../libDaisy//src/hid/disp/oled_display.h ****     Sets the pixel at the specified coordinate to be on/off.
  38:../../libDaisy//src/hid/disp/oled_display.h ****     \param x   x Coordinate
  39:../../libDaisy//src/hid/disp/oled_display.h ****     \param y   y coordinate
  40:../../libDaisy//src/hid/disp/oled_display.h ****     \param on  on or off
  41:../../libDaisy//src/hid/disp/oled_display.h ****     */
  42:../../libDaisy//src/hid/disp/oled_display.h ****     void DrawPixel(uint_fast8_t x, uint_fast8_t y, bool on) override
  43:../../libDaisy//src/hid/disp/oled_display.h ****     {
  44:../../libDaisy//src/hid/disp/oled_display.h ****         driver_.DrawPixel(x, y, on);
  45:../../libDaisy//src/hid/disp/oled_display.h ****     }
  46:../../libDaisy//src/hid/disp/oled_display.h **** 
  47:../../libDaisy//src/hid/disp/oled_display.h ****     /** 
  48:../../libDaisy//src/hid/disp/oled_display.h ****     Writes the current display buffer to the OLED device using SPI or I2C depending on 
  49:../../libDaisy//src/hid/disp/oled_display.h ****     how the object was initialized.
  50:../../libDaisy//src/hid/disp/oled_display.h ****     */
  51:../../libDaisy//src/hid/disp/oled_display.h ****     void Update() override { driver_.Update(); }
ARM GAS  C:\Users\evang\AppData\Local\Temp\ccUReI4Z.s 			page 69


 1527              		.loc 9 51 10 is_stmt 1 view -0
 1528              		.cfi_startproc
 1529              		@ args = 0, pretend = 0, frame = 8
 1530              		@ frame_needed = 0, uses_anonymous_args = 0
 1531              		.loc 9 51 10 is_stmt 0 view .LVU381
 1532 0000 2DE9F04F 		push	{r4, r5, r6, r7, r8, r9, r10, fp, lr}
 1533              		.cfi_def_cfa_offset 36
 1534              		.cfi_offset 4, -36
 1535              		.cfi_offset 5, -32
 1536              		.cfi_offset 6, -28
 1537              		.cfi_offset 7, -24
 1538              		.cfi_offset 8, -20
 1539              		.cfi_offset 9, -16
 1540              		.cfi_offset 10, -12
 1541              		.cfi_offset 11, -8
 1542              		.cfi_offset 14, -4
 1543              	.LBB854:
 1544              	.LBB855:
 1545              	.LBB856:
 1546              	.LBB857:
  45:../../libDaisy//src/dev/oled_ssd130x.h ****     };
 1547              		.loc 10 45 30 view .LVU382
 1548 0004 4FF0B008 		mov	r8, #176
 1549              	.LBE857:
 1550              	.LBE856:
 1551              	.LBE855:
 1552              	.LBE854:
 1553              		.loc 9 51 10 view .LVU383
 1554 0008 85B0     		sub	sp, sp, #20
 1555              		.cfi_def_cfa_offset 56
 1556              		.loc 9 51 10 view .LVU384
 1557 000a 0546     		mov	r5, r0
 1558              	.LVL89:
 1559              	.LBB869:
 1560              	.LBI854:
 367:../../libDaisy//src/dev/oled_ssd130x.h ****         }
 368:../../libDaisy//src/dev/oled_ssd130x.h ****     };
 369:../../libDaisy//src/dev/oled_ssd130x.h **** 
 370:../../libDaisy//src/dev/oled_ssd130x.h ****     /**
 371:../../libDaisy//src/dev/oled_ssd130x.h ****      * Update the display 
 372:../../libDaisy//src/dev/oled_ssd130x.h ****     */
 373:../../libDaisy//src/dev/oled_ssd130x.h ****     void Update()
 1561              		.loc 10 373 10 is_stmt 1 view .LVU385
 1562              	.LBB868:
 374:../../libDaisy//src/dev/oled_ssd130x.h ****     {
 375:../../libDaisy//src/dev/oled_ssd130x.h ****         uint8_t i;
 376:../../libDaisy//src/dev/oled_ssd130x.h ****         uint8_t high_column_addr;
 377:../../libDaisy//src/dev/oled_ssd130x.h ****         switch(height)
 378:../../libDaisy//src/dev/oled_ssd130x.h ****         {
 379:../../libDaisy//src/dev/oled_ssd130x.h ****             case 32: high_column_addr = 0x12; break;
 380:../../libDaisy//src/dev/oled_ssd130x.h **** 
 381:../../libDaisy//src/dev/oled_ssd130x.h ****             default: high_column_addr = 0x10; break;
 382:../../libDaisy//src/dev/oled_ssd130x.h ****         }
 383:../../libDaisy//src/dev/oled_ssd130x.h ****         for(i = 0; i < (height / 8); i++)
 1563              		.loc 10 383 22 view .LVU386
 1564              	.LBB860:
 1565              	.LBB858:
ARM GAS  C:\Users\evang\AppData\Local\Temp\ccUReI4Z.s 			page 70


  45:../../libDaisy//src/dev/oled_ssd130x.h ****     };
 1566              		.loc 10 45 30 is_stmt 0 view .LVU387
 1567 000c 00F10807 		add	r7, r0, #8
 1568              	.LVL90:
  45:../../libDaisy//src/dev/oled_ssd130x.h ****     };
 1569              		.loc 10 45 30 view .LVU388
 1570 0010 00F18F06 		add	r6, r0, #143
 1571 0014 00F28F49 		addw	r9, r0, #1167
 1572              	.LVL91:
 1573              	.L51:
  45:../../libDaisy//src/dev/oled_ssd130x.h ****     };
 1574              		.loc 10 45 30 view .LVU389
 1575              	.LBE858:
 1576              	.LBI856:
  42:../../libDaisy//src/dev/oled_ssd130x.h ****     {
 1577              		.loc 10 42 10 is_stmt 1 view .LVU390
 1578              	.LBB859:
  44:../../libDaisy//src/dev/oled_ssd130x.h ****         i2c_.TransmitBlocking(i2c_address_, buf, 2, 1000);
 1579              		.loc 10 44 9 view .LVU391
  45:../../libDaisy//src/dev/oled_ssd130x.h ****     };
 1580              		.loc 10 45 30 is_stmt 0 view .LVU392
 1581 0018 4FF47A7B 		mov	fp, #1000
  44:../../libDaisy//src/dev/oled_ssd130x.h ****         i2c_.TransmitBlocking(i2c_address_, buf, 2, 1000);
 1582              		.loc 10 44 17 view .LVU393
 1583 001c 4FF0000A 		mov	r10, #0
  45:../../libDaisy//src/dev/oled_ssd130x.h ****     };
 1584              		.loc 10 45 30 view .LVU394
 1585 0020 297B     		ldrb	r1, [r5, #12]	@ zero_extendqisi2
 1586 0022 0223     		movs	r3, #2
 1587 0024 03AA     		add	r2, sp, #12
 1588 0026 3846     		mov	r0, r7
 1589 0028 CDF800B0 		str	fp, [sp]
 1590 002c A6F18004 		sub	r4, r6, #128
  44:../../libDaisy//src/dev/oled_ssd130x.h ****         i2c_.TransmitBlocking(i2c_address_, buf, 2, 1000);
 1591              		.loc 10 44 17 view .LVU395
 1592 0030 8DF80CA0 		strb	r10, [sp, #12]
  44:../../libDaisy//src/dev/oled_ssd130x.h ****         i2c_.TransmitBlocking(i2c_address_, buf, 2, 1000);
 1593              		.loc 10 44 36 view .LVU396
 1594 0034 8DF80D80 		strb	r8, [sp, #13]
  45:../../libDaisy//src/dev/oled_ssd130x.h ****     };
 1595              		.loc 10 45 9 is_stmt 1 view .LVU397
  45:../../libDaisy//src/dev/oled_ssd130x.h ****     };
 1596              		.loc 10 45 30 is_stmt 0 view .LVU398
 1597 0038 FFF7FEFF 		bl	_ZN5daisy9I2CHandle16TransmitBlockingEtPhtm
 1598              	.LVL92:
  45:../../libDaisy//src/dev/oled_ssd130x.h ****     };
 1599              		.loc 10 45 30 view .LVU399
 1600              	.LBE859:
 1601              	.LBE860:
 1602              	.LBB861:
 1603              	.LBI861:
  42:../../libDaisy//src/dev/oled_ssd130x.h ****     {
 1604              		.loc 10 42 10 is_stmt 1 view .LVU400
 1605              	.LBB862:
  44:../../libDaisy//src/dev/oled_ssd130x.h ****         i2c_.TransmitBlocking(i2c_address_, buf, 2, 1000);
 1606              		.loc 10 44 9 view .LVU401
  45:../../libDaisy//src/dev/oled_ssd130x.h ****     };
ARM GAS  C:\Users\evang\AppData\Local\Temp\ccUReI4Z.s 			page 71


 1607              		.loc 10 45 30 is_stmt 0 view .LVU402
 1608 003c 297B     		ldrb	r1, [r5, #12]	@ zero_extendqisi2
 1609 003e 0223     		movs	r3, #2
 1610 0040 03AA     		add	r2, sp, #12
 1611 0042 3846     		mov	r0, r7
 1612 0044 CDF800B0 		str	fp, [sp]
  44:../../libDaisy//src/dev/oled_ssd130x.h ****         i2c_.TransmitBlocking(i2c_address_, buf, 2, 1000);
 1613              		.loc 10 44 17 view .LVU403
 1614 0048 8DF80CA0 		strb	r10, [sp, #12]
  44:../../libDaisy//src/dev/oled_ssd130x.h ****         i2c_.TransmitBlocking(i2c_address_, buf, 2, 1000);
 1615              		.loc 10 44 36 view .LVU404
 1616 004c 8DF80DA0 		strb	r10, [sp, #13]
  45:../../libDaisy//src/dev/oled_ssd130x.h ****     };
 1617              		.loc 10 45 9 is_stmt 1 view .LVU405
  45:../../libDaisy//src/dev/oled_ssd130x.h ****     };
 1618              		.loc 10 45 30 is_stmt 0 view .LVU406
 1619 0050 FFF7FEFF 		bl	_ZN5daisy9I2CHandle16TransmitBlockingEtPhtm
 1620              	.LVL93:
  45:../../libDaisy//src/dev/oled_ssd130x.h ****     };
 1621              		.loc 10 45 30 view .LVU407
 1622              	.LBE862:
 1623              	.LBE861:
 1624              	.LBB863:
 1625              	.LBI863:
  42:../../libDaisy//src/dev/oled_ssd130x.h ****     {
 1626              		.loc 10 42 10 is_stmt 1 view .LVU408
 1627              	.LBB864:
  44:../../libDaisy//src/dev/oled_ssd130x.h ****         i2c_.TransmitBlocking(i2c_address_, buf, 2, 1000);
 1628              		.loc 10 44 9 view .LVU409
  44:../../libDaisy//src/dev/oled_ssd130x.h ****         i2c_.TransmitBlocking(i2c_address_, buf, 2, 1000);
 1629              		.loc 10 44 36 is_stmt 0 view .LVU410
 1630 0054 4FF0100C 		mov	ip, #16
  45:../../libDaisy//src/dev/oled_ssd130x.h ****     };
 1631              		.loc 10 45 30 view .LVU411
 1632 0058 297B     		ldrb	r1, [r5, #12]	@ zero_extendqisi2
 1633 005a 0223     		movs	r3, #2
 1634 005c 03AA     		add	r2, sp, #12
 1635 005e 3846     		mov	r0, r7
 1636 0060 CDF800B0 		str	fp, [sp]
  44:../../libDaisy//src/dev/oled_ssd130x.h ****         i2c_.TransmitBlocking(i2c_address_, buf, 2, 1000);
 1637              		.loc 10 44 17 view .LVU412
 1638 0064 8DF80CA0 		strb	r10, [sp, #12]
  44:../../libDaisy//src/dev/oled_ssd130x.h ****         i2c_.TransmitBlocking(i2c_address_, buf, 2, 1000);
 1639              		.loc 10 44 36 view .LVU413
 1640 0068 8DF80DC0 		strb	ip, [sp, #13]
  45:../../libDaisy//src/dev/oled_ssd130x.h ****     };
 1641              		.loc 10 45 9 is_stmt 1 view .LVU414
  45:../../libDaisy//src/dev/oled_ssd130x.h ****     };
 1642              		.loc 10 45 30 is_stmt 0 view .LVU415
 1643 006c FFF7FEFF 		bl	_ZN5daisy9I2CHandle16TransmitBlockingEtPhtm
 1644              	.LVL94:
  45:../../libDaisy//src/dev/oled_ssd130x.h ****     };
 1645              		.loc 10 45 30 view .LVU416
 1646              	.LBE864:
 1647              	.LBE863:
 1648              	.LBB865:
 1649              	.LBI865:
ARM GAS  C:\Users\evang\AppData\Local\Temp\ccUReI4Z.s 			page 72


  48:../../libDaisy//src/dev/oled_ssd130x.h ****     {
 1650              		.loc 10 48 10 is_stmt 1 view .LVU417
 1651              	.LBB866:
  50:../../libDaisy//src/dev/oled_ssd130x.h ****         {
 1652              		.loc 10 50 29 view .LVU418
 1653              	.L50:
 1654              	.LBB867:
  52:../../libDaisy//src/dev/oled_ssd130x.h ****             i2c_.TransmitBlocking(i2c_address_, buf, 2, 1000);
 1655              		.loc 10 52 13 view .LVU419
  53:../../libDaisy//src/dev/oled_ssd130x.h ****         }
 1656              		.loc 10 53 34 is_stmt 0 view .LVU420
 1657 0070 4FF47A70 		mov	r0, #1000
  52:../../libDaisy//src/dev/oled_ssd130x.h ****             i2c_.TransmitBlocking(i2c_address_, buf, 2, 1000);
 1658              		.loc 10 52 44 view .LVU421
 1659 0074 14F801CF 		ldrb	ip, [r4, #1]!	@ zero_extendqisi2
 1660              	.LVL95:
  52:../../libDaisy//src/dev/oled_ssd130x.h ****             i2c_.TransmitBlocking(i2c_address_, buf, 2, 1000);
 1661              		.loc 10 52 21 view .LVU422
 1662 0078 4FF0400E 		mov	lr, #64
  53:../../libDaisy//src/dev/oled_ssd130x.h ****         }
 1663              		.loc 10 53 34 view .LVU423
 1664 007c 297B     		ldrb	r1, [r5, #12]	@ zero_extendqisi2
 1665 007e 0223     		movs	r3, #2
 1666 0080 0090     		str	r0, [sp]
 1667 0082 03AA     		add	r2, sp, #12
 1668 0084 3846     		mov	r0, r7
  52:../../libDaisy//src/dev/oled_ssd130x.h ****             i2c_.TransmitBlocking(i2c_address_, buf, 2, 1000);
 1669              		.loc 10 52 21 view .LVU424
 1670 0086 8DF80CE0 		strb	lr, [sp, #12]
  52:../../libDaisy//src/dev/oled_ssd130x.h ****             i2c_.TransmitBlocking(i2c_address_, buf, 2, 1000);
 1671              		.loc 10 52 44 view .LVU425
 1672 008a 8DF80DC0 		strb	ip, [sp, #13]
  53:../../libDaisy//src/dev/oled_ssd130x.h ****         }
 1673              		.loc 10 53 13 is_stmt 1 view .LVU426
  53:../../libDaisy//src/dev/oled_ssd130x.h ****         }
 1674              		.loc 10 53 34 is_stmt 0 view .LVU427
 1675 008e FFF7FEFF 		bl	_ZN5daisy9I2CHandle16TransmitBlockingEtPhtm
 1676              	.LVL96:
 1677              	.LBE867:
  50:../../libDaisy//src/dev/oled_ssd130x.h ****         {
 1678              		.loc 10 50 9 is_stmt 1 view .LVU428
  50:../../libDaisy//src/dev/oled_ssd130x.h ****         {
 1679              		.loc 10 50 29 view .LVU429
 1680 0092 B442     		cmp	r4, r6
 1681 0094 ECD1     		bne	.L50
 1682              	.LVL97:
  50:../../libDaisy//src/dev/oled_ssd130x.h ****         {
 1683              		.loc 10 50 29 is_stmt 0 view .LVU430
 1684              	.LBE866:
 1685              	.LBE865:
 1686              		.loc 10 383 9 is_stmt 1 view .LVU431
 1687              		.loc 10 383 22 view .LVU432
 1688 0096 04F18006 		add	r6, r4, #128
 1689 009a 08F10108 		add	r8, r8, #1
 1690              	.LVL98:
 1691              		.loc 10 383 22 is_stmt 0 view .LVU433
 1692 009e 4E45     		cmp	r6, r9
ARM GAS  C:\Users\evang\AppData\Local\Temp\ccUReI4Z.s 			page 73


 1693 00a0 5FFA88F8 		uxtb	r8, r8
 1694 00a4 B8D1     		bne	.L51
 1695              	.LBE868:
 1696              	.LBE869:
 1697              		.loc 9 51 48 view .LVU434
 1698 00a6 05B0     		add	sp, sp, #20
 1699              		.cfi_def_cfa_offset 36
 1700              		@ sp needed
 1701 00a8 BDE8F08F 		pop	{r4, r5, r6, r7, r8, r9, r10, fp, pc}
 1702              		.loc 9 51 48 view .LVU435
 1703              		.cfi_endproc
 1704              	.LFE5043:
 1706              		.section	.text._ZN5daisy11OledDisplayINS_13SSD130xDriverILj128ELj64ENS_19SSD130xI2CTransportEEEE9D
 1707              		.align	1
 1708              		.p2align 2,,3
 1709              		.weak	_ZN5daisy11OledDisplayINS_13SSD130xDriverILj128ELj64ENS_19SSD130xI2CTransportEEEE9DrawPixelE
 1710              		.syntax unified
 1711              		.thumb
 1712              		.thumb_func
 1713              		.fpu fpv5-d16
 1715              	_ZN5daisy11OledDisplayINS_13SSD130xDriverILj128ELj64ENS_19SSD130xI2CTransportEEEE9DrawPixelEjjb:
 1716              	.LVL99:
 1717              	.LFB5228:
  42:../../libDaisy//src/hid/disp/oled_display.h ****     {
 1718              		.loc 9 42 10 is_stmt 1 view -0
 1719              		.cfi_startproc
 1720              		@ args = 0, pretend = 0, frame = 0
 1721              		@ frame_needed = 0, uses_anonymous_args = 0
 1722              		@ link register save eliminated.
 1723              	.LBB874:
 1724              	.LBI874:
 352:../../libDaisy//src/dev/oled_ssd130x.h ****     {
 1725              		.loc 10 352 10 view .LVU437
 1726              	.LBB875:
 354:../../libDaisy//src/dev/oled_ssd130x.h ****             return;
 1727              		.loc 10 354 9 is_stmt 0 view .LVU438
 1728 0000 7F29     		cmp	r1, #127
 1729 0002 1ED8     		bhi	.L55
 1730 0004 3F2A     		cmp	r2, #63
 1731 0006 1CD8     		bhi	.L55
 356:../../libDaisy//src/dev/oled_ssd130x.h ****             buffer_[x + (y / 8) * width] |= (1 << (y % 8));
 1732              		.loc 10 356 9 view .LVU439
 1733 0008 6BB1     		cbz	r3, .L57
 357:../../libDaisy//src/dev/oled_ssd130x.h ****         else
 1734              		.loc 10 357 28 view .LVU440
 1735 000a D308     		lsrs	r3, r2, #3
 1736              	.LVL100:
 357:../../libDaisy//src/dev/oled_ssd130x.h ****         else
 1737              		.loc 10 357 48 view .LVU441
 1738 000c 4FF0010C 		mov	ip, #1
 357:../../libDaisy//src/dev/oled_ssd130x.h ****         else
 1739              		.loc 10 357 54 view .LVU442
 1740 0010 02F00702 		and	r2, r2, #7
 1741              	.LVL101:
 357:../../libDaisy//src/dev/oled_ssd130x.h ****         else
 1742              		.loc 10 357 42 view .LVU443
 1743 0014 01EBC313 		add	r3, r1, r3, lsl #7
ARM GAS  C:\Users\evang\AppData\Local\Temp\ccUReI4Z.s 			page 74


 357:../../libDaisy//src/dev/oled_ssd130x.h ****         else
 1744              		.loc 10 357 48 view .LVU444
 1745 0018 0CFA02F2 		lsl	r2, ip, r2
 357:../../libDaisy//src/dev/oled_ssd130x.h ****         else
 1746              		.loc 10 357 42 view .LVU445
 1747 001c C118     		adds	r1, r0, r3
 1748              	.LVL102:
 357:../../libDaisy//src/dev/oled_ssd130x.h ****         else
 1749              		.loc 10 357 42 view .LVU446
 1750 001e 0B7C     		ldrb	r3, [r1, #16]	@ zero_extendqisi2
 1751 0020 1A43     		orrs	r2, r2, r3
 1752 0022 0A74     		strb	r2, [r1, #16]
 1753 0024 7047     		bx	lr
 1754              	.LVL103:
 1755              	.L57:
 1756              	.LBB876:
 1757              	.LBI876:
 352:../../libDaisy//src/dev/oled_ssd130x.h ****     {
 1758              		.loc 10 352 10 is_stmt 1 view .LVU447
 1759              	.LBB877:
 359:../../libDaisy//src/dev/oled_ssd130x.h ****     }
 1760              		.loc 10 359 28 is_stmt 0 view .LVU448
 1761 0026 D308     		lsrs	r3, r2, #3
 1762              	.LVL104:
 359:../../libDaisy//src/dev/oled_ssd130x.h ****     }
 1763              		.loc 10 359 49 view .LVU449
 1764 0028 4FF0010C 		mov	ip, #1
 359:../../libDaisy//src/dev/oled_ssd130x.h ****     }
 1765              		.loc 10 359 55 view .LVU450
 1766 002c 02F00702 		and	r2, r2, #7
 1767              	.LVL105:
 359:../../libDaisy//src/dev/oled_ssd130x.h ****     }
 1768              		.loc 10 359 42 view .LVU451
 1769 0030 01EBC313 		add	r3, r1, r3, lsl #7
 359:../../libDaisy//src/dev/oled_ssd130x.h ****     }
 1770              		.loc 10 359 49 view .LVU452
 1771 0034 0CFA02FC 		lsl	ip, ip, r2
 359:../../libDaisy//src/dev/oled_ssd130x.h ****     }
 1772              		.loc 10 359 42 view .LVU453
 1773 0038 C118     		adds	r1, r0, r3
 1774              	.LVL106:
 359:../../libDaisy//src/dev/oled_ssd130x.h ****     }
 1775              		.loc 10 359 42 view .LVU454
 1776 003a 0A7C     		ldrb	r2, [r1, #16]	@ zero_extendqisi2
 1777 003c 22EA0C02 		bic	r2, r2, ip
 1778 0040 0A74     		strb	r2, [r1, #16]
 1779              	.LVL107:
 1780              	.L55:
 359:../../libDaisy//src/dev/oled_ssd130x.h ****     }
 1781              		.loc 10 359 42 view .LVU455
 1782              	.LBE877:
 1783              	.LBE876:
 1784              	.LBE875:
 1785              	.LBE874:
  45:../../libDaisy//src/hid/disp/oled_display.h **** 
 1786              		.loc 9 45 5 view .LVU456
 1787 0042 7047     		bx	lr
ARM GAS  C:\Users\evang\AppData\Local\Temp\ccUReI4Z.s 			page 75


 1788              		.cfi_endproc
 1789              	.LFE5228:
 1791              		.section	.text._ZN5daisy25OneBitGraphicsDisplayImplINS_11OledDisplayINS_13SSD130xDriverILj128ELj64
 1792              		.align	1
 1793              		.p2align 2,,3
 1794              		.weak	_ZN5daisy25OneBitGraphicsDisplayImplINS_11OledDisplayINS_13SSD130xDriverILj128ELj64ENS_19SSD
 1795              		.syntax unified
 1796              		.thumb
 1797              		.thumb_func
